(dp1
S'files'
p2
(dp3
S'_home_dundee_myFlaskApp_jahelp_flask_lib_python2_7_site-packages_sqlalchemy_engine_url'
p4
(dp5
S'index'
p6
(dp7
S'html_filename'
p8
S'_home_dundee_myFlaskApp_jahelp_flask_lib_python2_7_site-packages_sqlalchemy_engine_url.html'
p9
sS'name'
p10
S'/home/dundee/myFlaskApp/jahelp/flask/lib/python2.7/site-packages/sqlalchemy/engine/url'
p11
sS'nums'
p12
ccopy_reg
_reconstructor
p13
(ccoverage.results
Numbers
p14
c__builtin__
object
p15
NtRp16
(dp17
S'n_files'
p18
I1
sS'n_branches'
p19
I57
sS'n_statements'
p20
I104
sS'n_excluded'
p21
I0
sS'n_partial_branches'
p22
I7
sS'n_missing'
p23
I72
sS'n_missing_branches'
p24
I48
sbssS'hash'
p25
S'\x17\xbf\xadof\xbc\x05\xcd\xe7\xa1\xa6|\x02-\x85\x87'
p26
ssS'_home_dundee_myFlaskApp_jahelp_flask_lib_python2_7_site-packages_sqlalchemy_events'
p27
(dp28
g6
(dp29
g8
S'_home_dundee_myFlaskApp_jahelp_flask_lib_python2_7_site-packages_sqlalchemy_events.html'
p30
sg10
S'/home/dundee/myFlaskApp/jahelp/flask/lib/python2.7/site-packages/sqlalchemy/events'
p31
sg12
g13
(g14
g15
NtRp32
(dp33
g18
I1
sg19
I68
sg20
I69
sg21
I0
sg22
I3
sg23
I51
sg24
I61
sbssg25
S'd\xbd\x19\x12\xb2\x9d\x13\xbcY\xf12@\xcf\x9a\x01\x84'
p34
ssS'_home_dundee_myFlaskApp_jahelp_flask_lib_python2_7_site-packages_sqlalchemy_types'
p35
(dp36
g6
(dp37
g8
S'_home_dundee_myFlaskApp_jahelp_flask_lib_python2_7_site-packages_sqlalchemy_types.html'
p38
sg10
S'/home/dundee/myFlaskApp/jahelp/flask/lib/python2.7/site-packages/sqlalchemy/types'
p39
sg12
g13
(g14
g15
NtRp40
(dp41
g18
I1
sg19
I186
sg20
I669
sg21
I0
sg22
I12
sg23
I599
sg24
I157
sbssg25
S'wDR\x17\xef\x8a\xea\xb3Vo)\xee\x9aP\x9d\xe2'
p42
ssS'_home_dundee_myFlaskApp_jahelp_flask_lib_python2_7_site-packages_sqlalchemy_sql_expression'
p43
(dp44
g6
(dp45
g8
S'_home_dundee_myFlaskApp_jahelp_flask_lib_python2_7_site-packages_sqlalchemy_sql_expression.html'
p46
sg10
S'/home/dundee/myFlaskApp/jahelp/flask/lib/python2.7/site-packages/sqlalchemy/sql/expression'
p47
sg12
g13
(g14
g15
NtRp48
(dp49
g18
I1
sg19
I608
sg20
I1824
sg21
I0
sg22
I50
sg23
I1593
sg24
I511
sbssg25
S'N{\x82=\xe6\xe6\x99\xdb(\xa6\x18\xe3\x94\x93R\xf3'
p50
ssS'_home_dundee_myFlaskApp_jahelp_flask_lib_python2_7_site-packages_sqlalchemy_orm_state'
p51
(dp52
g6
(dp53
g8
S'_home_dundee_myFlaskApp_jahelp_flask_lib_python2_7_site-packages_sqlalchemy_orm_state.html'
p54
sg10
S'/home/dundee/myFlaskApp/jahelp/flask/lib/python2.7/site-packages/sqlalchemy/orm/state'
p55
sg12
g13
(g14
g15
NtRp56
(dp57
g18
I1
sg19
I97
sg20
I267
sg21
I0
sg22
I8
sg23
I202
sg24
I72
sbssg25
S'\xfb\x81\xbddph\xe4#0=\n\xec\xc23\xd6s'
p58
ssS'app_views'
p59
(dp60
S'index'
p61
(dp62
S'html_filename'
p63
S'app_views.html'
p64
sS'name'
p65
S'app/views'
p66
sS'nums'
p67
g13
(g14
g15
NtRp68
(dp69
g18
I1
sg19
I200
sg20
I710
sg21
I0
sg22
I7
sg23
I612
sg24
I169
sbssS'hash'
p70
S'\x85+\xaedf\xced\xcbs\xc4\x01("\xf4U\xf7'
p71
ssS'_home_dundee_myFlaskApp_jahelp_flask_lib_python2_7_site-packages_sqlalchemy_orm_dynamic'
p72
(dp73
g6
(dp74
g8
S'_home_dundee_myFlaskApp_jahelp_flask_lib_python2_7_site-packages_sqlalchemy_orm_dynamic.html'
p75
sg10
S'/home/dundee/myFlaskApp/jahelp/flask/lib/python2.7/site-packages/sqlalchemy/orm/dynamic'
p76
sg12
g13
(g14
g15
NtRp77
(dp78
g18
I1
sg19
I57
sg20
I176
sg21
I0
sg22
I11
sg23
I140
sg24
I45
sbssg25
S'\xe5^\\\xa50\xe6\x1fC,{\xf5\xff\x93@\x9a\xa7'
p79
ssS'_home_dundee_myFlaskApp_jahelp_flask_lib_python2_7_site-packages_werkzeug_datastructures'
p80
(dp81
g6
(dp82
g8
S'_home_dundee_myFlaskApp_jahelp_flask_lib_python2_7_site-packages_werkzeug_datastructures.html'
p83
sg10
S'/home/dundee/myFlaskApp/jahelp/flask/lib/python2.7/site-packages/werkzeug/datastructures'
p84
sg12
g13
(g14
g15
NtRp85
(dp86
g18
I1
sg19
I515
sg20
I1276
sg21
I0
sg22
I27
sg23
I1160
sg24
I458
sbssg25
S'k=p$\xea4\xa0\xf3yj\xfdcn\xb8\x17\xd6'
p87
ssS'_home_dundee_myFlaskApp_jahelp_flask_lib_python2_7_site-packages_sqlalchemy_util_langhelpers'
p88
(dp89
g6
(dp90
g8
S'_home_dundee_myFlaskApp_jahelp_flask_lib_python2_7_site-packages_sqlalchemy_util_langhelpers.html'
p91
sg10
S'/home/dundee/myFlaskApp/jahelp/flask/lib/python2.7/site-packages/sqlalchemy/util/langhelpers'
p92
sg12
g13
(g14
g15
NtRp93
(dp94
g18
I1
sg19
I199
sg20
I448
sg21
I0
sg22
I17
sg23
I350
sg24
I162
sbssg25
S'V\x82\xf7Ia=\x96\xe0\x82\x07\xe8\xda\xf4\x0f\xec{'
p95
ssS'_home_dundee_myFlaskApp_jahelp_flask_lib_python2_7_site-packages_sqlalchemy_orm_scoping'
p96
(dp97
g6
(dp98
g8
S'_home_dundee_myFlaskApp_jahelp_flask_lib_python2_7_site-packages_sqlalchemy_orm_scoping.html'
p99
sg10
S'/home/dundee/myFlaskApp/jahelp/flask/lib/python2.7/site-packages/sqlalchemy/orm/scoping'
p100
sg12
g13
(g14
g15
NtRp101
(dp102
g18
I1
sg19
I22
sg20
I63
sg21
I0
sg22
I1
sg23
I57
sg24
I19
sbssg25
S'\xa5\xe5]m\xbf\x04\x13j\xec"*\x0e\xb0\r\xc2X'
p103
ssS'_home_dundee_myFlaskApp_jahelp_flask_lib_python2_7_site-packages_sqlalchemy_orm_sync'
p104
(dp105
g6
(dp106
g8
S'_home_dundee_myFlaskApp_jahelp_flask_lib_python2_7_site-packages_sqlalchemy_orm_sync.html'
p107
sg10
S'/home/dundee/myFlaskApp/jahelp/flask/lib/python2.7/site-packages/sqlalchemy/orm/sync'
p108
sg12
g13
(g14
g15
NtRp109
(dp110
g18
I1
sg19
I18
sg20
I55
sg21
I0
sg22
I1
sg23
I50
sg24
I17
sbssg25
S'C\x03\xe4;d\x98\xc5d\x8a\xd1\xe4\xc1\x12F\xa0\x97'
p111
ssS'_home_dundee_myFlaskApp_jahelp_flask_lib_python2_7_site-packages_flask_helpers'
p112
(dp113
g6
(dp114
g8
S'_home_dundee_myFlaskApp_jahelp_flask_lib_python2_7_site-packages_flask_helpers.html'
p115
sg10
S'/home/dundee/myFlaskApp/jahelp/flask/lib/python2.7/site-packages/flask/helpers'
p116
sg12
g13
(g14
g15
NtRp117
(dp118
g18
I1
sg19
I129
sg20
I289
sg21
I0
sg22
I12
sg23
I253
sg24
I117
sbssg25
S'\xc1B\x13\xf8\xcd+\xd9\r\xe5"\x10v\x15\x9f}r'
p119
ssS'_home_dundee_myFlaskApp_jahelp_flask_lib_python2_7_site-packages_werkzeug_wrappers'
p120
(dp121
g6
(dp122
g8
S'_home_dundee_myFlaskApp_jahelp_flask_lib_python2_7_site-packages_werkzeug_wrappers.html'
p123
sg10
S'/home/dundee/myFlaskApp/jahelp/flask/lib/python2.7/site-packages/werkzeug/wrappers'
p124
sg12
g13
(g14
g15
NtRp125
(dp126
g18
I1
sg19
I185
sg20
I567
sg21
I0
sg22
I31
sg23
I427
sg24
I127
sbssg25
S'\x86\xe4zr\xd9\x03\x89s\xab1\xd31!\x029\xe1'
p127
ssS'_home_dundee_myFlaskApp_jahelp_flask_lib_python2_7_site-packages_werkzeug_test'
p128
(dp129
g6
(dp130
g8
S'_home_dundee_myFlaskApp_jahelp_flask_lib_python2_7_site-packages_werkzeug_test.html'
p131
sg10
S'/home/dundee/myFlaskApp/jahelp/flask/lib/python2.7/site-packages/werkzeug/test'
p132
sg12
g13
(g14
g15
NtRp133
(dp134
g18
I1
sg19
I176
sg20
I457
sg21
I0
sg22
I42
sg23
I177
sg24
I104
sbssg25
S'\xdc\xc2\xdf\xe7\xe7\xef\x053\xb3\xd0\xc5\xff\x95:\x97f'
p135
ssS'_home_dundee_myFlaskApp_jahelp_flask_lib_python2_7_site-packages_jinja2_nodes'
p136
(dp137
g6
(dp138
g8
S'_home_dundee_myFlaskApp_jahelp_flask_lib_python2_7_site-packages_jinja2_nodes.html'
p139
sg10
S'/home/dundee/myFlaskApp/jahelp/flask/lib/python2.7/site-packages/jinja2/nodes'
p140
sg12
g13
(g14
g15
NtRp141
(dp142
g18
I1
sg19
I135
sg20
I423
sg21
I0
sg22
I16
sg23
I334
sg24
I81
sbssg25
S'\x13\xb0+\xf3\xd8\xf7\xae8\xf6\x80\xca\x94\x05\x18r='
p143
ssS'_home_dundee_myFlaskApp_jahelp_flask_lib_python2_7_site-packages_sqlalchemy_orm_properties'
p144
(dp145
g6
(dp146
g8
S'_home_dundee_myFlaskApp_jahelp_flask_lib_python2_7_site-packages_sqlalchemy_orm_properties.html'
p147
sg10
S'/home/dundee/myFlaskApp/jahelp/flask/lib/python2.7/site-packages/sqlalchemy/orm/properties'
p148
sg12
g13
(g14
g15
NtRp149
(dp150
g18
I1
sg19
I352
sg20
I572
sg21
I0
sg22
I8
sg23
I554
sg24
I342
sbssg25
S'\x88\x96\x7fG\xf71\xfb@l_v\xee\xb8\x7f\xbc6'
p151
ssS'_home_dundee_myFlaskApp_jahelp_flask_lib_python2_7_site-packages_sqlalchemy_util_topological'
p152
(dp153
g6
(dp154
g8
S'_home_dundee_myFlaskApp_jahelp_flask_lib_python2_7_site-packages_sqlalchemy_util_topological.html'
p155
sg10
S'/home/dundee/myFlaskApp/jahelp/flask/lib/python2.7/site-packages/sqlalchemy/util/topological'
p156
sg12
g13
(g14
g15
NtRp157
(dp158
g18
I1
sg19
I26
sg20
I46
sg21
I0
sg22
I3
sg23
I16
sg24
I3
sbssg25
S'\xf7N\x89\x87K\xa2\x9b\xb2?"$\xed#\xa5c\xc1'
p159
ssS'_home_dundee_myFlaskApp_jahelp_flask_lib_python2_7_site-packages_sqlalchemy_event'
p160
(dp161
g6
(dp162
g8
S'_home_dundee_myFlaskApp_jahelp_flask_lib_python2_7_site-packages_sqlalchemy_event.html'
p163
sg10
S'/home/dundee/myFlaskApp/jahelp/flask/lib/python2.7/site-packages/sqlalchemy/event'
p164
sg12
g13
(g14
g15
NtRp165
(dp166
g18
I1
sg19
I79
sg20
I209
sg21
I0
sg22
I15
sg23
I160
sg24
I57
sbssg25
S'\x99\xa4.\x9a\xaa\xa7H6;\xb4\xe9\x94+\xba\x1a4'
p167
ssS'app_momentjs'
p168
(dp169
g61
(dp170
S'html_filename'
p171
S'app_momentjs.html'
p172
sS'name'
p173
S'app/momentjs'
p174
sS'nums'
p175
g13
(g14
g15
NtRp176
(dp177
g18
I1
sg19
I0
sg20
I12
sg21
I0
sg22
I0
sg23
I9
sg24
I0
sbssg70
S'P\xd7\xed\xe4\x00\x02jZ\x13.&h\xcc\xcf\xa4\xcb'
p178
ssS'_home_dundee_myFlaskApp_jahelp_flask_lib_python2_7_site-packages_werkzeug_urls'
p179
(dp180
g6
(dp181
g8
S'_home_dundee_myFlaskApp_jahelp_flask_lib_python2_7_site-packages_werkzeug_urls.html'
p182
sg10
S'/home/dundee/myFlaskApp/jahelp/flask/lib/python2.7/site-packages/werkzeug/urls'
p183
sg12
g13
(g14
g15
NtRp184
(dp185
g18
I1
sg19
I183
sg20
I371
sg21
I0
sg22
I43
sg23
I189
sg24
I94
sbssg25
S'\x95\xb6\x85h\x81\x11l\x98AMPxqE&\x04'
p186
ssS'_home_dundee_myFlaskApp_jahelp_flask_lib_python2_7_site-packages_jinja2__compat'
p187
(dp188
g6
(dp189
g8
S'_home_dundee_myFlaskApp_jahelp_flask_lib_python2_7_site-packages_jinja2__compat.html'
p190
sg10
S'/home/dundee/myFlaskApp/jahelp/flask/lib/python2.7/site-packages/jinja2/_compat'
p191
sg12
g13
(g14
g15
NtRp192
(dp193
g18
I1
sg19
I30
sg20
I98
sg21
I0
sg22
I2
sg23
I95
sg24
I28
sbssg25
S'\x8d\xce\x10=\xfe\x1fp\xc93\xedi+\xe7\xf6\x7f\x9b'
p194
ssS'_home_dundee_myFlaskApp_jahelp_flask_lib_python2_7_site-packages_sqlalchemy_orm_events'
p195
(dp196
g6
(dp197
g8
S'_home_dundee_myFlaskApp_jahelp_flask_lib_python2_7_site-packages_sqlalchemy_orm_events.html'
p198
sg10
S'/home/dundee/myFlaskApp/jahelp/flask/lib/python2.7/site-packages/sqlalchemy/orm/events'
p199
sg12
g13
(g14
g15
NtRp200
(dp201
g18
I1
sg19
I143
sg20
I157
sg21
I0
sg22
I5
sg23
I148
sg24
I138
sbssg25
S'\x8ao\xbb\xea>\xd8\x90\x82\xa8\xb7\xd4\x8c1\xd4\x95\xc5'
p202
ssS'_home_dundee_myFlaskApp_jahelp_flask_lib_python2_7_site-packages_flask_exthook'
p203
(dp204
g6
(dp205
g8
S'_home_dundee_myFlaskApp_jahelp_flask_lib_python2_7_site-packages_flask_exthook.html'
p206
sg10
S'/home/dundee/myFlaskApp/jahelp/flask/lib/python2.7/site-packages/flask/exthook'
p207
sg12
g13
(g14
g15
NtRp208
(dp209
g18
I1
sg19
I24
sg20
I53
sg21
I0
sg22
I1
sg23
I52
sg24
I23
sbssg25
S'\x8b0\x03\xads;\xfb\xda\x17\x94u\x11O\x81]\x1b'
p210
ssS'_home_dundee_myFlaskApp_jahelp_flask_lib_python2_7_site-packages_werkzeug_routing'
p211
(dp212
g6
(dp213
g8
S'_home_dundee_myFlaskApp_jahelp_flask_lib_python2_7_site-packages_werkzeug_routing.html'
p214
sg10
S'/home/dundee/myFlaskApp/jahelp/flask/lib/python2.7/site-packages/werkzeug/routing'
p215
sg12
g13
(g14
g15
NtRp216
(dp217
g18
I1
sg19
I263
sg20
I584
sg21
I0
sg22
I36
sg23
I459
sg24
I189
sbssg25
S'\x858\x9c\x16\xa7\xec\xb3W[\x83a\r\xc2<"\xd4'
p218
ssS'_home_dundee_myFlaskApp_jahelp_flask_lib_python2_7_site-packages_flask_globals'
p219
(dp220
g6
(dp221
g8
S'_home_dundee_myFlaskApp_jahelp_flask_lib_python2_7_site-packages_flask_globals.html'
p222
sg10
S'/home/dundee/myFlaskApp/jahelp/flask/lib/python2.7/site-packages/flask/globals'
p223
sg12
g13
(g14
g15
NtRp224
(dp225
g18
I1
sg19
I4
sg20
I19
sg21
I0
sg22
I2
sg23
I13
sg24
I2
sbssg25
S'^\xb2\x91\xaf]\xfaK\xac\x03BA\x90\xdeT\x0c\xc8'
p226
ssS'_home_dundee_myFlaskApp_jahelp_flask_lib_python2_7_site-packages_wtforms_compat'
p227
(dp228
g6
(dp229
g8
S'_home_dundee_myFlaskApp_jahelp_flask_lib_python2_7_site-packages_wtforms_compat.html'
p230
sg10
S'/home/dundee/myFlaskApp/jahelp/flask/lib/python2.7/site-packages/wtforms/compat'
p231
sg12
g13
(g14
g15
NtRp232
(dp233
g18
I1
sg19
I10
sg20
I14
sg21
I0
sg22
I1
sg23
I13
sg24
I9
sbssg25
S'\xef,y\xce\xaem\xb5)\xd8\xb8Y\xef\x9f\xbc\xea\xb6'
p234
ssS'_home_dundee_myFlaskApp_jahelp_flask_lib_python2_7_site-packages_sqlalchemy_orm_attributes'
p235
(dp236
g6
(dp237
g8
S'_home_dundee_myFlaskApp_jahelp_flask_lib_python2_7_site-packages_sqlalchemy_orm_attributes.html'
p238
sg10
S'/home/dundee/myFlaskApp/jahelp/flask/lib/python2.7/site-packages/sqlalchemy/orm/attributes'
p239
sg12
g13
(g14
g15
NtRp240
(dp241
g18
I1
sg19
I225
sg20
I610
sg21
I0
sg22
I13
sg23
I549
sg24
I189
sbssg25
S"'\xb9o\xde\xc3\x9e\x07\x01\x9dh\x0e\x9dmY\xa9\x8b"
p242
ssS'app___init__'
p243
(dp244
g61
(dp245
g8
S'app___init__.html'
p246
sg10
S'app/__init__'
p247
sg12
g13
(g14
g15
NtRp248
(dp249
g18
I1
sg19
I2
sg20
I30
sg21
I0
sg22
I0
sg23
I27
sg24
I2
sbssg70
S'\xe3\xaar\xa5&\xcdv\x8bJ\xb4\xc6\xf3\xd6f\xc1b'
p250
ssS'_home_dundee_myFlaskApp_jahelp_flask_lib_python2_7_site-packages_flask_templating'
p251
(dp252
g6
(dp253
g8
S'_home_dundee_myFlaskApp_jahelp_flask_lib_python2_7_site-packages_flask_templating.html'
p254
sg10
S'/home/dundee/myFlaskApp/jahelp/flask/lib/python2.7/site-packages/flask/templating'
p255
sg12
g13
(g14
g15
NtRp256
(dp257
g18
I1
sg19
I26
sg20
I70
sg21
I0
sg22
I2
sg23
I56
sg24
I24
sbssg25
S'X\x80\xbc\xc1~YsX\x8cY\xdf`\xd2\x1c\x91\xdf'
p258
ssS'_home_dundee_myFlaskApp_jahelp_flask_lib_python2_7_site-packages_flask_testing'
p259
(dp260
g6
(dp261
g8
S'_home_dundee_myFlaskApp_jahelp_flask_lib_python2_7_site-packages_flask_testing.html'
p262
sg10
S'/home/dundee/myFlaskApp/jahelp/flask/lib/python2.7/site-packages/flask/testing'
p263
sg12
g13
(g14
g15
NtRp264
(dp265
g18
I1
sg19
I14
sg20
I52
sg21
I0
sg22
I1
sg23
I28
sg24
I11
sbssg25
S")'^\xe0\xaa\x98\xabj:\x168!=vEf"
p266
ssS'_home_dundee_myFlaskApp_jahelp_flask_lib_python2_7_site-packages_flask_wtf_form'
p267
(dp268
g6
(dp269
g8
S'_home_dundee_myFlaskApp_jahelp_flask_lib_python2_7_site-packages_flask_wtf_form.html'
p270
sg10
S'/home/dundee/myFlaskApp/jahelp/flask/lib/python2.7/site-packages/flask_wtf/form'
p271
sg12
g13
(g14
g15
NtRp272
(dp273
g18
I1
sg19
I32
sg20
I58
sg21
I0
sg22
I9
sg23
I31
sg24
I19
sbssg25
S'\xef\xa5cX\x9a\xf1\xa2\xc3Oq0\x02\x14O+\x05'
p274
ssS'_home_dundee_myFlaskApp_jahelp_flask_lib_python2_7_site-packages_werkzeug_formparser'
p275
(dp276
g6
(dp277
g8
S'_home_dundee_myFlaskApp_jahelp_flask_lib_python2_7_site-packages_werkzeug_formparser.html'
p278
sg10
S'/home/dundee/myFlaskApp/jahelp/flask/lib/python2.7/site-packages/werkzeug/formparser'
p279
sg12
g13
(g14
g15
NtRp280
(dp281
g18
I1
sg19
I107
sg20
I244
sg21
I4
sg22
I7
sg23
I220
sg24
I96
sbssg25
S'\xdd.\x04IK\x83\xce\xfe\x0f6\xa6]j\xf5\xec\x16'
p282
ssS'_home_dundee_myFlaskApp_jahelp_flask_lib_python2_7_site-packages_werkzeug_wsgi'
p283
(dp284
g6
(dp285
g8
S'_home_dundee_myFlaskApp_jahelp_flask_lib_python2_7_site-packages_werkzeug_wsgi.html'
p286
sg10
S'/home/dundee/myFlaskApp/jahelp/flask/lib/python2.7/site-packages/werkzeug/wsgi'
p287
sg12
g13
(g14
g15
NtRp288
(dp289
g18
I1
sg19
I213
sg20
I449
sg21
I0
sg22
I21
sg23
I362
sg24
I180
sbssg25
S'>f2\x87t\xd0\x1d\x85\xe5+\xf4\xcc\xcb\xfa\xdeH'
p290
ssS'_home_dundee_myFlaskApp_jahelp_flask_lib_python2_7_site-packages_sqlalchemy_orm_unitofwork'
p291
(dp292
g6
(dp293
g8
S'_home_dundee_myFlaskApp_jahelp_flask_lib_python2_7_site-packages_sqlalchemy_orm_unitofwork.html'
p294
sg10
S'/home/dundee/myFlaskApp/jahelp/flask/lib/python2.7/site-packages/sqlalchemy/orm/unitofwork'
p295
sg12
g13
(g14
g15
NtRp296
(dp297
g18
I1
sg19
I144
sg20
I297
sg21
I0
sg22
I17
sg23
I206
sg24
I90
sbssg25
S'8\xaf5\xac\xc7\x160i\x7f\xca\x1f\xf6\xaeq\x13\xaf'
p298
ssS'_home_dundee_myFlaskApp_jahelp_flask_lib_python2_7_site-packages_flask_sqlalchemy'
p299
(dp300
g6
(dp301
g8
S'_home_dundee_myFlaskApp_jahelp_flask_lib_python2_7_site-packages_flask_sqlalchemy.html'
p302
sg10
S'/home/dundee/myFlaskApp/jahelp/flask/lib/python2.7/site-packages/flask_sqlalchemy'
p303
sg12
g13
(g14
g15
NtRp304
(dp305
g18
I1
sg19
I127
sg20
I409
sg21
I0
sg22
I22
sg23
I280
sg24
I85
sbssg25
S'6q\xa1\x195Q\xef\xab?\xb0\x94%zP\xd7\xc7'
p306
ssS'_home_dundee_myFlaskApp_jahelp_flask_lib_python2_7_site-packages_sqlalchemy_dialects_sqlite___init__'
p307
(dp308
g6
(dp309
g8
S'_home_dundee_myFlaskApp_jahelp_flask_lib_python2_7_site-packages_sqlalchemy_dialects_sqlite___init__.html'
p310
sg10
S'/home/dundee/myFlaskApp/jahelp/flask/lib/python2.7/site-packages/sqlalchemy/dialects/sqlite/__init__'
p311
sg12
g13
(g14
g15
NtRp312
(dp313
g18
I1
sg19
I0
sg20
I4
sg21
I0
sg22
I0
sg23
I0
sg24
I0
sbssg25
S'\xf5xG\xf6\x9f%\xd4?00\xb1\xbb\x190\x9am'
p314
ssS'_home_dundee_myFlaskApp_jahelp_flask_lib_python2_7_site-packages_wtforms_ext_csrf_form'
p315
(dp316
g6
(dp317
g8
S'_home_dundee_myFlaskApp_jahelp_flask_lib_python2_7_site-packages_wtforms_ext_csrf_form.html'
p318
sg10
S'/home/dundee/myFlaskApp/jahelp/flask/lib/python2.7/site-packages/wtforms/ext/csrf/form'
p319
sg12
g13
(g14
g15
NtRp320
(dp321
g18
I1
sg19
I2
sg20
I18
sg21
I0
sg22
I0
sg23
I16
sg24
I2
sbssg25
S'\x9bt%*\x0e*\x96\x83[mT\xb9\x9e\xc2\x05w'
p322
ssS'_home_dundee_myFlaskApp_jahelp_flask_lib_python2_7_site-packages_markupsafe__native'
p323
(dp324
g6
(dp325
g8
S'_home_dundee_myFlaskApp_jahelp_flask_lib_python2_7_site-packages_markupsafe__native.html'
p326
sg10
S'/home/dundee/myFlaskApp/jahelp/flask/lib/python2.7/site-packages/markupsafe/_native'
p327
sg12
g13
(g14
g15
NtRp328
(dp329
g18
I1
sg19
I6
sg20
I15
sg21
I0
sg22
I0
sg23
I12
sg24
I4
sbssg25
S'\x99\x9d\xa8\x14&Yj\x9a\xa99C\xfciKY\x0b'
p330
ssS'_home_dundee_myFlaskApp_jahelp_flask_lib_python2_7_site-packages_werkzeug_contrib_securecookie'
p331
(dp332
g6
(dp333
g8
S'_home_dundee_myFlaskApp_jahelp_flask_lib_python2_7_site-packages_werkzeug_contrib_securecookie.html'
p334
sg10
S'/home/dundee/myFlaskApp/jahelp/flask/lib/python2.7/site-packages/werkzeug/contrib/securecookie'
p335
sg12
g13
(g14
g15
NtRp336
(dp337
g18
I1
sg19
I36
sg20
I102
sg21
I0
sg22
I12
sg23
I47
sg24
I14
sbssg25
S')apv\xc4\x85\xa2\x17\r\xf6\x973"nZ\xba'
p338
ssS'_home_dundee_myFlaskApp_jahelp_flask_lib_python2_7_site-packages_werkzeug_local'
p339
(dp340
g6
(dp341
g8
S'_home_dundee_myFlaskApp_jahelp_flask_lib_python2_7_site-packages_werkzeug_local.html'
p342
sg10
S'/home/dundee/myFlaskApp/jahelp/flask/lib/python2.7/site-packages/werkzeug/local'
p343
sg12
g13
(g14
g15
NtRp344
(dp345
g18
I1
sg19
I134
sg20
I210
sg21
I0
sg22
I8
sg23
I174
sg24
I126
sbssg25
S'\xd1\xda\xad\x0e">\xdc\x83\xcf\xd9\xbc\xea\xd0k\xe0\x94'
p346
ssS'_home_dundee_myFlaskApp_jahelp_flask_lib_python2_7_site-packages_flask_app'
p347
(dp348
g6
(dp349
g8
S'_home_dundee_myFlaskApp_jahelp_flask_lib_python2_7_site-packages_flask_app.html'
p350
sg10
S'/home/dundee/myFlaskApp/jahelp/flask/lib/python2.7/site-packages/flask/app'
p351
sg12
g13
(g14
g15
NtRp352
(dp353
g18
I1
sg19
I167
sg20
I484
sg21
I0
sg22
I26
sg23
I391
sg24
I124
sbssg25
S'\xc5\x1dx\x87ka=mP\xf0\xa1"H\xec\xbd\xa7'
p354
ssS'_home_dundee_myFlaskApp_jahelp_flask_lib_python2_7_site-packages_sqlalchemy_engine___init__'
p355
(dp356
g6
(dp357
g8
S'_home_dundee_myFlaskApp_jahelp_flask_lib_python2_7_site-packages_sqlalchemy_engine___init__.html'
p358
sg10
S'/home/dundee/myFlaskApp/jahelp/flask/lib/python2.7/site-packages/sqlalchemy/engine/__init__'
p359
sg12
g13
(g14
g15
NtRp360
(dp361
g18
I1
sg19
I4
sg20
I20
sg21
I0
sg22
I0
sg23
I17
sg24
I4
sbssg25
S'\xc9\xee\xc9\x8f\xb3\t\xe5.\xc9{*\xd3\xf9\xf7v|'
p362
ssS'_home_dundee_myFlaskApp_jahelp_flask_lib_python2_7_site-packages_flask_ctx'
p363
(dp364
g6
(dp365
g8
S'_home_dundee_myFlaskApp_jahelp_flask_lib_python2_7_site-packages_flask_ctx.html'
p366
sg10
S'/home/dundee/myFlaskApp/jahelp/flask/lib/python2.7/site-packages/flask/ctx'
p367
sg12
g13
(g14
g15
NtRp368
(dp369
g18
I1
sg19
I25
sg20
I96
sg21
I0
sg22
I12
sg23
I41
sg24
I14
sbssg25
S'\x81\xa8+\xe7c\xe9oy\xac\x14C\xa9\x81\xbf\rS'
p370
ssS'_home_dundee_myFlaskApp_jahelp_flask_lib_python2_7_site-packages_sqlalchemy_orm_interfaces'
p371
(dp372
g6
(dp373
g8
S'_home_dundee_myFlaskApp_jahelp_flask_lib_python2_7_site-packages_sqlalchemy_orm_interfaces.html'
p374
sg10
S'/home/dundee/myFlaskApp/jahelp/flask/lib/python2.7/site-packages/sqlalchemy/orm/interfaces'
p375
sg12
g13
(g14
g15
NtRp376
(dp377
g18
I1
sg19
I95
sg20
I312
sg21
I0
sg22
I3
sg23
I288
sg24
I90
sbssg25
S"\x91\x8f\xc6\x8f\xd1~h%\x1b?(\xa6k\xa9?'"
p378
ssS'_home_dundee_myFlaskApp_jahelp_flask_lib_python2_7_site-packages_markupsafe___init__'
p379
(dp380
g6
(dp381
g8
S'_home_dundee_myFlaskApp_jahelp_flask_lib_python2_7_site-packages_markupsafe___init__.html'
p382
sg10
S'/home/dundee/myFlaskApp/jahelp/flask/lib/python2.7/site-packages/markupsafe/__init__'
p383
sg12
g13
(g14
g15
NtRp384
(dp385
g18
I1
sg19
I46
sg20
I112
sg21
I0
sg22
I2
sg23
I108
sg24
I44
sbssg25
S'v\x93\xdb\xb1\xad\x0e\x07\xad5i\xa16\xc6\x83\xea\xf8'
p386
ssS'_home_dundee_myFlaskApp_jahelp_flask_lib_python2_7_site-packages_sqlalchemy_sql_compiler'
p387
(dp388
g6
(dp389
g8
S'_home_dundee_myFlaskApp_jahelp_flask_lib_python2_7_site-packages_sqlalchemy_sql_compiler.html'
p390
sg10
S'/home/dundee/myFlaskApp/jahelp/flask/lib/python2.7/site-packages/sqlalchemy/sql/compiler'
p391
sg12
g13
(g14
g15
NtRp392
(dp393
g18
I1
sg19
I541
sg20
I1007
sg21
I0
sg22
I93
sg23
I689
sg24
I355
sbssg25
S'P\xa7\x98\xc0 i+j\xb6\x17\x86\xd7O\xcb\x85\xaa'
p394
ssS'_home_dundee_myFlaskApp_jahelp_flask_lib_python2_7_site-packages_jinja2_ext'
p395
(dp396
g6
(dp397
g8
S'_home_dundee_myFlaskApp_jahelp_flask_lib_python2_7_site-packages_jinja2_ext.html'
p398
sg10
S'/home/dundee/myFlaskApp/jahelp/flask/lib/python2.7/site-packages/jinja2/ext'
p399
sg12
g13
(g14
g15
NtRp400
(dp401
g18
I1
sg19
I139
sg20
I305
sg21
I0
sg22
I1
sg23
I292
sg24
I136
sbssg25
S'W9\xc6a}\xf3z@j\x16\xa8\xa8\x08\xe4\x95\xc5'
p402
ssS'_home_dundee_myFlaskApp_jahelp_flask_lib_python2_7_site-packages_flask_sessions'
p403
(dp404
g6
(dp405
g8
S'_home_dundee_myFlaskApp_jahelp_flask_lib_python2_7_site-packages_flask_sessions.html'
p406
sg10
S'/home/dundee/myFlaskApp/jahelp/flask/lib/python2.7/site-packages/flask/sessions'
p407
sg12
g13
(g14
g15
NtRp408
(dp409
g18
I1
sg19
I12
sg20
I57
sg21
I0
sg22
I5
sg23
I39
sg24
I5
sbssg25
S'\x80d\x9b\x056\xda\xd4\xa5R\xbcEw\xf1\r\x9bx'
p410
ssS'app_models'
p411
(dp412
g61
(dp413
g63
S'app_models.html'
p414
sg65
S'app/models'
p415
sg67
g13
(g14
g15
NtRp416
(dp417
g18
I1
sg19
I0
sg20
I125
sg21
I0
sg22
I0
sg23
I120
sg24
I0
sbssg70
S'\xfd\t\xf9\x80\x9d\xd9v\x9fb\x02\x84\xc3(\xbbm\xd6'
p418
ssS'_home_dundee_myFlaskApp_jahelp_flask_lib_python2_7_site-packages_sqlalchemy_engine_strategies'
p419
(dp420
g6
(dp421
g8
S'_home_dundee_myFlaskApp_jahelp_flask_lib_python2_7_site-packages_sqlalchemy_engine_strategies.html'
p422
sg10
S'/home/dundee/myFlaskApp/jahelp/flask/lib/python2.7/site-packages/sqlalchemy/engine/strategies'
p423
sg12
g13
(g14
g15
NtRp424
(dp425
g18
I1
sg19
I40
sg20
I123
sg21
I0
sg22
I8
sg23
I76
sg24
I20
sbssg25
S'\x993\xee\x1cpza\xca\xe4\xee\x18\xd7\xddPdq'
p426
ssS'_home_dundee_myFlaskApp_jahelp_flask_lib_python2_7_site-packages_sqlalchemy_sql_operators'
p427
(dp428
g6
(dp429
g8
S'_home_dundee_myFlaskApp_jahelp_flask_lib_python2_7_site-packages_sqlalchemy_sql_operators.html'
p430
sg10
S'/home/dundee/myFlaskApp/jahelp/flask/lib/python2.7/site-packages/sqlalchemy/sql/operators'
p431
sg12
g13
(g14
g15
NtRp432
(dp433
g18
I1
sg19
I2
sg20
I155
sg21
I0
sg22
I1
sg23
I152
sg24
I1
sbssg25
S'h\xa4\x841qH>G(\x17\x92\xc6p$\xdb\xb7'
p434
ssS'_home_dundee_myFlaskApp_jahelp_flask_lib_python2_7_site-packages_sqlalchemy_engine_base'
p435
(dp436
g6
(dp437
g8
S'_home_dundee_myFlaskApp_jahelp_flask_lib_python2_7_site-packages_sqlalchemy_engine_base.html'
p438
sg10
S'/home/dundee/myFlaskApp/jahelp/flask/lib/python2.7/site-packages/sqlalchemy/engine/base'
p439
sg12
g13
(g14
g15
NtRp440
(dp441
g18
I1
sg19
I381
sg20
I1175
sg21
I0
sg22
I48
sg23
I926
sg24
I283
sbssg25
S'\xf8s\x80N\xdf\x89\xb5\xc0\x95\xb0\xe4\xd3T\xcc\xd4x'
p442
ssS'_home_dundee_myFlaskApp_jahelp_flask_lib_python2_7_site-packages_sqlalchemy_dialects_sqlite_base'
p443
(dp444
g6
(dp445
g8
S'_home_dundee_myFlaskApp_jahelp_flask_lib_python2_7_site-packages_sqlalchemy_dialects_sqlite_base.html'
p446
sg10
S'/home/dundee/myFlaskApp/jahelp/flask/lib/python2.7/site-packages/sqlalchemy/dialects/sqlite/base'
p447
sg12
g13
(g14
g15
NtRp448
(dp449
g18
I1
sg19
I131
sg20
I367
sg21
I0
sg22
I22
sg23
I193
sg24
I84
sbssg25
S'\xccB\x183\x97M\x82\xd5\xdb\x1389\x8cq\x00-'
p450
ssS'_home_dundee_myFlaskApp_jahelp_flask_lib_python2_7_site-packages_sqlalchemy_sql_visitors'
p451
(dp452
g6
(dp453
g8
S'_home_dundee_myFlaskApp_jahelp_flask_lib_python2_7_site-packages_sqlalchemy_sql_visitors.html'
p454
sg10
S'/home/dundee/myFlaskApp/jahelp/flask/lib/python2.7/site-packages/sqlalchemy/sql/visitors'
p455
sg12
g13
(g14
g15
NtRp456
(dp457
g18
I1
sg19
I49
sg20
I126
sg21
I0
sg22
I9
sg23
I72
sg24
I23
sbssg25
S'{\x06\x95\x9d\x94\xeaPsS\xd6\x14\xb2w\x9fKZ'
p458
ssS'_home_dundee_myFlaskApp_jahelp_flask_lib_python2_7_site-packages_sqlalchemy_orm_identity'
p459
(dp460
g6
(dp461
g8
S'_home_dundee_myFlaskApp_jahelp_flask_lib_python2_7_site-packages_sqlalchemy_orm_identity.html'
p462
sg10
S'/home/dundee/myFlaskApp/jahelp/flask/lib/python2.7/site-packages/sqlalchemy/orm/identity'
p463
sg12
g13
(g14
g15
NtRp464
(dp465
g18
I1
sg19
I60
sg20
I173
sg21
I0
sg22
I7
sg23
I132
sg24
I43
sbssg25
S'\xd1\x9bw\xf6\x82\x802\xe9\x03\x8e\xf6\xde54\xca\xcc'
p466
ssS'_home_dundee_myFlaskApp_jahelp_flask_lib_python2_7_site-packages_sqlalchemy_orm_session'
p467
(dp468
g6
(dp469
g8
S'_home_dundee_myFlaskApp_jahelp_flask_lib_python2_7_site-packages_sqlalchemy_orm_session.html'
p470
sg10
S'/home/dundee/myFlaskApp/jahelp/flask/lib/python2.7/site-packages/sqlalchemy/orm/session'
p471
sg12
g13
(g14
g15
NtRp472
(dp473
g18
I1
sg19
I343
sg20
I682
sg21
I0
sg22
I57
sg23
I460
sg24
I233
sbssg25
S'\x95\xf23\xcbM\x94}\xfe\xe9\x16\xc9m\xea\xb9JH'
p474
ssS'_home_dundee_myFlaskApp_jahelp_flask_lib_python2_7_site-packages_flask_login'
p475
(dp476
g6
(dp477
g8
S'_home_dundee_myFlaskApp_jahelp_flask_lib_python2_7_site-packages_flask_login.html'
p478
sg10
S'/home/dundee/myFlaskApp/jahelp/flask/lib/python2.7/site-packages/flask_login'
p479
sg12
g13
(g14
g15
NtRp480
(dp481
g18
I1
sg19
I92
sg20
I304
sg21
I13
sg22
I25
sg23
I199
sg24
I57
sbssg25
S'A\xf5\xed\x11\x8e\xca\xfc\x01\xb5/\xd8\xdcH\x0c0\xcb'
p482
ssS'_home_dundee_myFlaskApp_jahelp_flask_lib_python2_7_site-packages_sqlalchemy_orm_instrumentation'
p483
(dp484
g6
(dp485
g8
S'_home_dundee_myFlaskApp_jahelp_flask_lib_python2_7_site-packages_sqlalchemy_orm_instrumentation.html'
p486
sg10
S'/home/dundee/myFlaskApp/jahelp/flask/lib/python2.7/site-packages/sqlalchemy/orm/instrumentation'
p487
sg12
g13
(g14
g15
NtRp488
(dp489
g18
I1
sg19
I93
sg20
I335
sg21
I0
sg22
I3
sg23
I323
sg24
I89
sbssg25
S"\x12\xbfr\xda'\xd8\x18\xab[\xa7\x94\xfb\x88\xa4\x0b\xaa"
p490
ssS'_home_dundee_myFlaskApp_jahelp_flask_lib_python2_7_site-packages_jinja2_loaders'
p491
(dp492
g6
(dp493
g8
S'_home_dundee_myFlaskApp_jahelp_flask_lib_python2_7_site-packages_jinja2_loaders.html'
p494
sg10
S'/home/dundee/myFlaskApp/jahelp/flask/lib/python2.7/site-packages/jinja2/loaders'
p495
sg12
g13
(g14
g15
NtRp496
(dp497
g18
I1
sg19
I70
sg20
I221
sg21
I0
sg22
I11
sg23
I189
sg24
I59
sbssg25
S'\x97\x19\x82;f"\x06\xa5\x13\xbaBW\x91\x16\x88\x1d'
p498
ssS'_home_dundee_myFlaskApp_jahelp_flask_lib_python2_7_site-packages_jinja2_visitor'
p499
(dp500
g6
(dp501
g8
S'_home_dundee_myFlaskApp_jahelp_flask_lib_python2_7_site-packages_jinja2_visitor.html'
p502
sg10
S'/home/dundee/myFlaskApp/jahelp/flask/lib/python2.7/site-packages/jinja2/visitor'
p503
sg12
g13
(g14
g15
NtRp504
(dp505
g18
I1
sg19
I22
sg20
I40
sg21
I0
sg22
I4
sg23
I17
sg24
I6
sbssg25
S'\xef\xa3\xef\x86V\x14\x17!\xcfd\x0by_\x14\xe1q'
p506
ssS'_home_dundee_myFlaskApp_jahelp_flask_lib_python2_7_site-packages_sqlalchemy_orm_mapper'
p507
(dp508
g6
(dp509
g8
S'_home_dundee_myFlaskApp_jahelp_flask_lib_python2_7_site-packages_sqlalchemy_orm_mapper.html'
p510
sg10
S'/home/dundee/myFlaskApp/jahelp/flask/lib/python2.7/site-packages/sqlalchemy/orm/mapper'
p511
sg12
g13
(g14
g15
NtRp512
(dp513
g18
I1
sg19
I602
sg20
I1023
sg21
I0
sg22
I45
sg23
I836
sg24
I503
sbssg25
S'>\x18\xc6\x86\x8d!\x0fU%\xf8\x0b\x183$p\xc9'
p514
ssS'_home_dundee_myFlaskApp_jahelp_flask_lib_python2_7_site-packages_jinja2_lexer'
p515
(dp516
g6
(dp517
g8
S'_home_dundee_myFlaskApp_jahelp_flask_lib_python2_7_site-packages_jinja2_lexer.html'
p518
sg10
S'/home/dundee/myFlaskApp/jahelp/flask/lib/python2.7/site-packages/jinja2/lexer'
p519
sg12
g13
(g14
g15
NtRp520
(dp521
g18
I1
sg19
I138
sg20
I346
sg21
I0
sg22
I24
sg23
I193
sg24
I55
sbssg25
S'\xc9\x03\xb7\xc4\xd4\xbd\xc9\x9e\xc2\xdf\x0f04\xaf_\x8f'
p522
ssS'_home_dundee_myFlaskApp_jahelp_flask_lib_python2_7_site-packages_werkzeug_contrib_sessions'
p523
(dp524
g6
(dp525
g8
S'_home_dundee_myFlaskApp_jahelp_flask_lib_python2_7_site-packages_werkzeug_contrib_sessions.html'
p526
sg10
S'/home/dundee/myFlaskApp/jahelp/flask/lib/python2.7/site-packages/werkzeug/contrib/sessions'
p527
sg12
g13
(g14
g15
NtRp528
(dp529
g18
I1
sg19
I38
sg20
I157
sg21
I0
sg22
I0
sg23
I152
sg24
I38
sbssg25
S'\xeeM3\x83\xdf\xb4\xc2\x94t\xca\xda\xe2\xa6Y\xd4\x98'
p530
ssS'_home_dundee_myFlaskApp_jahelp_flask_lib_python2_7_site-packages_sqlalchemy_orm_dependency'
p531
(dp532
g6
(dp533
g8
S'_home_dundee_myFlaskApp_jahelp_flask_lib_python2_7_site-packages_sqlalchemy_orm_dependency.html'
p534
sg10
S'/home/dundee/myFlaskApp/jahelp/flask/lib/python2.7/site-packages/sqlalchemy/orm/dependency'
p535
sg12
g13
(g14
g15
NtRp536
(dp537
g18
I1
sg19
I348
sg20
I474
sg21
I0
sg22
I9
sg23
I446
sg24
I326
sbssg25
S",\xf5\xcdyPw\x86'\xe0\x0c\xf2\xd6\xa01j\xd6"
p538
ssS'app_forms'
p539
(dp540
g61
(dp541
g63
S'app_forms.html'
p542
sg65
S'app/forms'
p543
sg67
g13
(g14
g15
NtRp544
(dp545
g18
I1
sg19
I10
sg20
I110
sg21
I0
sg22
I4
sg23
I101
sg24
I6
sbssg70
S'\x04R\xc1k\xb38\x89\xaf6\xf4\xeb\xa6\xd6\x08\xcf\xc0'
p546
ssS'_home_dundee_myFlaskApp_jahelp_flask_lib_python2_7_site-packages_wtforms_form'
p547
(dp548
g6
(dp549
g8
S'_home_dundee_myFlaskApp_jahelp_flask_lib_python2_7_site-packages_wtforms_form.html'
p550
sg10
S'/home/dundee/myFlaskApp/jahelp/flask/lib/python2.7/site-packages/wtforms/form'
p551
sg12
g13
(g14
g15
NtRp552
(dp553
g18
I1
sg19
I60
sg20
I122
sg21
I0
sg22
I8
sg23
I68
sg24
I20
sbssg25
S'<\xaf`\xc5\xdbb\xc7\x9f\xcc\x83\x18\x8e\x8bK\x93\xdc'
p554
ssS'_home_dundee_myFlaskApp_jahelp_flask_lib_python2_7_site-packages_werkzeug_exceptions'
p555
(dp556
g6
(dp557
g8
S'_home_dundee_myFlaskApp_jahelp_flask_lib_python2_7_site-packages_werkzeug_exceptions.html'
p558
sg10
S'/home/dundee/myFlaskApp/jahelp/flask/lib/python2.7/site-packages/werkzeug/exceptions'
p559
sg12
g13
(g14
g15
NtRp560
(dp561
g18
I1
sg19
I22
sg20
I159
sg21
I2
sg22
I1
sg23
I154
sg24
I21
sbssg25
S'\xec\xc7]\x96y\xe2\x1b\xb3eP\x9cs\x82\xe5\x8c,'
p562
ssS'_home_dundee_myFlaskApp_jahelp_flask_lib_python2_7_site-packages_jinja2_compiler'
p563
(dp564
g6
(dp565
g8
S'_home_dundee_myFlaskApp_jahelp_flask_lib_python2_7_site-packages_jinja2_compiler.html'
p566
sg10
S'/home/dundee/myFlaskApp/jahelp/flask/lib/python2.7/site-packages/jinja2/compiler'
p567
sg12
g13
(g14
g15
NtRp568
(dp569
g18
I1
sg19
I429
sg20
I1030
sg21
I0
sg22
I81
sg23
I583
sg24
I241
sbssg25
S'\xdc\x8c\xe2i\xebPfI&\x93\xe4!\x93?G\xcb'
p570
ssS'_home_dundee_myFlaskApp_jahelp_flask_lib_python2_7_site-packages_sqlalchemy_util__collections'
p571
(dp572
g6
(dp573
g8
S'_home_dundee_myFlaskApp_jahelp_flask_lib_python2_7_site-packages_sqlalchemy_util__collections.html'
p574
sg10
S'/home/dundee/myFlaskApp/jahelp/flask/lib/python2.7/site-packages/sqlalchemy/util/_collections'
p575
sg12
g13
(g14
g15
NtRp576
(dp577
g18
I1
sg19
I146
sg20
I580
sg21
I4
sg22
I11
sg23
I504
sg24
I129
sbssg25
S'\xdf%\xeb\x9c\n\xef\xfa\xd1k\xffZ\x08TGX\xda'
p578
ssS'_home_dundee_myFlaskApp_jahelp_flask_lib_python2_7_site-packages_sqlalchemy_util_compat'
p579
(dp580
g6
(dp581
g8
S'_home_dundee_myFlaskApp_jahelp_flask_lib_python2_7_site-packages_sqlalchemy_util_compat.html'
p582
sg10
S'/home/dundee/myFlaskApp/jahelp/flask/lib/python2.7/site-packages/sqlalchemy/util/compat'
p583
sg12
g13
(g14
g15
NtRp584
(dp585
g18
I1
sg19
I41
sg20
I167
sg21
I0
sg22
I0
sg23
I161
sg24
I37
sbssg25
S"\x0b\x8aE\xf8\x164i\x8dy\xbc3p'T\xe8\xae"
p586
ssS'_home_dundee_myFlaskApp_jahelp_flask_lib_python2_7_site-packages_wtforms_widgets_core'
p587
(dp588
g6
(dp589
g8
S'_home_dundee_myFlaskApp_jahelp_flask_lib_python2_7_site-packages_wtforms_widgets_core.html'
p590
sg10
S'/home/dundee/myFlaskApp/jahelp/flask/lib/python2.7/site-packages/wtforms/widgets/core'
p591
sg12
g13
(g14
g15
NtRp592
(dp593
g18
I1
sg19
I36
sg20
I117
sg21
I0
sg22
I6
sg23
I88
sg24
I24
sbssg25
S'j]\xfc\xdf\xafQ\x8cAVEmQc3\xd8\x15'
p594
ssS'_home_dundee_myFlaskApp_jahelp_flask_lib_python2_7_site-packages_sqlalchemy_orm_util'
p595
(dp596
g6
(dp597
g8
S'_home_dundee_myFlaskApp_jahelp_flask_lib_python2_7_site-packages_sqlalchemy_orm_util.html'
p598
sg10
S'/home/dundee/myFlaskApp/jahelp/flask/lib/python2.7/site-packages/sqlalchemy/orm/util'
p599
sg12
g13
(g14
g15
NtRp600
(dp601
g18
I1
sg19
I134
sg20
I342
sg21
I0
sg22
I11
sg23
I313
sg24
I123
sbssg25
S'\x88\xd1wg\xdc\x8a\xa7\x7f\x8c\xba\xc0\xa9&\xf7\x95C'
p602
ssS'_home_dundee_myFlaskApp_jahelp_flask_lib_python2_7_site-packages_sqlalchemy_orm_query'
p603
(dp604
g6
(dp605
g8
S'_home_dundee_myFlaskApp_jahelp_flask_lib_python2_7_site-packages_sqlalchemy_orm_query.html'
p606
sg10
S'/home/dundee/myFlaskApp/jahelp/flask/lib/python2.7/site-packages/sqlalchemy/orm/query'
p607
sg12
g13
(g14
g15
NtRp608
(dp609
g18
I1
sg19
I590
sg20
I1154
sg21
I0
sg22
I93
sg23
I890
sg24
I465
sbssg25
S'\xe1\xd6\xf0\x81)\x04_\x98\xf5\x07\xe4n\xa0u\xa8\xee'
p610
ssS'_home_dundee_myFlaskApp_jahelp_flask_lib_python2_7_site-packages_sqlalchemy_orm_persistence'
p611
(dp612
g6
(dp613
g8
S'_home_dundee_myFlaskApp_jahelp_flask_lib_python2_7_site-packages_sqlalchemy_orm_persistence.html'
p614
sg10
S'/home/dundee/myFlaskApp/jahelp/flask/lib/python2.7/site-packages/sqlalchemy/orm/persistence'
p615
sg12
g13
(g14
g15
NtRp616
(dp617
g18
I1
sg19
I197
sg20
I297
sg21
I0
sg22
I33
sg23
I155
sg24
I101
sbssg25
S'{8\xac\x1ag%\x1c\x94s\xe7I\xa4G\xd9o\x1c'
p618
ssS'_home_dundee_myFlaskApp_jahelp_flask_lib_python2_7_site-packages_jinja2_parser'
p619
(dp620
g6
(dp621
g8
S'_home_dundee_myFlaskApp_jahelp_flask_lib_python2_7_site-packages_jinja2_parser.html'
p622
sg10
S'/home/dundee/myFlaskApp/jahelp/flask/lib/python2.7/site-packages/jinja2/parser'
p623
sg12
g13
(g14
g15
NtRp624
(dp625
g18
I1
sg19
I283
sg20
I646
sg21
I0
sg22
I50
sg23
I341
sg24
I156
sbssg25
S'\xc6/\xed\xe2\x06z\xf0@\xef\x18\x8f\x13\x86b@\xe2'
p626
ssS'_home_dundee_myFlaskApp_jahelp_flask_lib_python2_7_site-packages_werkzeug_http'
p627
(dp628
g6
(dp629
g8
S'_home_dundee_myFlaskApp_jahelp_flask_lib_python2_7_site-packages_werkzeug_http.html'
p630
sg10
S'/home/dundee/myFlaskApp/jahelp/flask/lib/python2.7/site-packages/werkzeug/http'
p631
sg12
g13
(g14
g15
NtRp632
(dp633
g18
I1
sg19
I206
sg20
I373
sg21
I4
sg22
I14
sg23
I317
sg24
I174
sbssg25
S'\xab7\x8e\xcai\xab\x91V\xfcrn\x0e\x04c\x02\x06'
p634
ssS'_home_dundee_myFlaskApp_jahelp_flask_lib_python2_7_site-packages_flask_wrappers'
p635
(dp636
g6
(dp637
g8
S'_home_dundee_myFlaskApp_jahelp_flask_lib_python2_7_site-packages_flask_wrappers.html'
p638
sg10
S'/home/dundee/myFlaskApp/jahelp/flask/lib/python2.7/site-packages/flask/wrappers'
p639
sg12
g13
(g14
g15
NtRp640
(dp641
g18
I1
sg19
I15
sg20
I46
sg21
I0
sg22
I4
sg23
I37
sg24
I10
sbssg25
S"\x13k\xc3\xbe'\x93\xfbw}\xcd\x1f\xeeJL\x98~"
p642
ssS'_home_dundee_myFlaskApp_jahelp_flask_lib_python2_7_site-packages_sqlalchemy_engine_ddl'
p643
(dp644
g6
(dp645
g8
S'_home_dundee_myFlaskApp_jahelp_flask_lib_python2_7_site-packages_sqlalchemy_engine_ddl.html'
p646
sg10
S'/home/dundee/myFlaskApp/jahelp/flask/lib/python2.7/site-packages/sqlalchemy/engine/ddl'
p647
sg12
g13
(g14
g15
NtRp648
(dp649
g18
I1
sg19
I48
sg20
I93
sg21
I0
sg22
I9
sg23
I38
sg24
I21
sbssg25
S'\xa8\x11p\xbe\x9d<.\xa3\xe5C\x9bh\x96\x17[\xe1'
p650
ssS'_home_dundee_myFlaskApp_jahelp_flask_lib_python2_7_site-packages_sqlalchemy_schema'
p651
(dp652
g6
(dp653
g8
S'_home_dundee_myFlaskApp_jahelp_flask_lib_python2_7_site-packages_sqlalchemy_schema.html'
p654
sg10
S'/home/dundee/myFlaskApp/jahelp/flask/lib/python2.7/site-packages/sqlalchemy/schema'
p655
sg12
g13
(g14
g15
NtRp656
(dp657
g18
I1
sg19
I433
sg20
I1010
sg21
I0
sg22
I36
sg23
I936
sg24
I396
sbssg25
S'F\x89\xad\x1fx\xd6\xa1\xbdg\xf9 !\xcd\xcd\x92\xaa'
p658
ssS'app_helperlist'
p659
(dp660
g61
(dp661
g8
S'app_helperlist.html'
p662
sg10
S'app/helperlist'
p663
sg12
g13
(g14
g15
NtRp664
(dp665
g18
I1
sg19
I4
sg20
I49
sg21
I0
sg22
I0
sg23
I48
sg24
I4
sbssg70
S'j\xb7\xa0{*\xd4\xd4\xb2DM\xd4n`[93'
p666
ssS'_home_dundee_myFlaskApp_jahelp_flask_lib_python2_7_site-packages_jinja2_optimizer'
p667
(dp668
g6
(dp669
g8
S'_home_dundee_myFlaskApp_jahelp_flask_lib_python2_7_site-packages_jinja2_optimizer.html'
p670
sg10
S'/home/dundee/myFlaskApp/jahelp/flask/lib/python2.7/site-packages/jinja2/optimizer'
p671
sg12
g13
(g14
g15
NtRp672
(dp673
g18
I1
sg19
I6
sg20
I31
sg21
I0
sg22
I1
sg23
I18
sg24
I5
sbssg25
S'\xee\x96\xd5\x16\xb2\x00\x02\xa6\xacA9\x1f\x00\xad\x0c\xe2'
p674
ssS'_home_dundee_myFlaskApp_jahelp_flask_lib_python2_7_site-packages_werkzeug_security'
p675
(dp676
g6
(dp677
g8
S'_home_dundee_myFlaskApp_jahelp_flask_lib_python2_7_site-packages_werkzeug_security.html'
p678
sg10
S'/home/dundee/myFlaskApp/jahelp/flask/lib/python2.7/site-packages/werkzeug/security'
p679
sg12
g13
(g14
g15
NtRp680
(dp681
g18
I1
sg19
I58
sg20
I115
sg21
I0
sg22
I14
sg23
I64
sg24
I34
sbssg25
S'\xf1\xe8t\x1c;\xba\x9eq16^\x92x\x90\x0b\xd5'
p682
ssS'_home_dundee_myFlaskApp_jahelp_flask_lib_python2_7_site-packages_sqlalchemy_ext_declarative'
p683
(dp684
g6
(dp685
g8
S'_home_dundee_myFlaskApp_jahelp_flask_lib_python2_7_site-packages_sqlalchemy_ext_declarative.html'
p686
sg10
S'/home/dundee/myFlaskApp/jahelp/flask/lib/python2.7/site-packages/sqlalchemy/ext/declarative'
p687
sg12
g13
(g14
g15
NtRp688
(dp689
g18
I1
sg19
I227
sg20
I312
sg21
I0
sg22
I1
sg23
I308
sg24
I224
sbssg25
S'\xc9n\x12\x7f\x0bW\x17\x96\xc44k\r\xf2,\xdbA'
p690
ssS'_home_dundee_myFlaskApp_jahelp_flask_lib_python2_7_site-packages_werkzeug_utils'
p691
(dp692
g6
(dp693
g8
S'_home_dundee_myFlaskApp_jahelp_flask_lib_python2_7_site-packages_werkzeug_utils.html'
p694
sg10
S'/home/dundee/myFlaskApp/jahelp/flask/lib/python2.7/site-packages/werkzeug/utils'
p695
sg12
g13
(g14
g15
NtRp696
(dp697
g18
I1
sg19
I104
sg20
I240
sg21
I0
sg22
I9
sg23
I218
sg24
I94
sbssg25
S'\x02\xa6\x90\xed\xed\xf9\xc0\x95\xff\x8f\xde\x86Y\x83\xf3\x18'
p698
ssS'_home_dundee_myFlaskApp_jahelp_flask_lib_python2_7_site-packages_sqlalchemy_log'
p699
(dp700
g6
(dp701
g8
S'_home_dundee_myFlaskApp_jahelp_flask_lib_python2_7_site-packages_sqlalchemy_log.html'
p702
sg10
S'/home/dundee/myFlaskApp/jahelp/flask/lib/python2.7/site-packages/sqlalchemy/log'
p703
sg12
g13
(g14
g15
NtRp704
(dp705
g18
I1
sg19
I29
sg20
I83
sg21
I0
sg22
I2
sg23
I74
sg24
I27
sbssg25
S'\xeb7{\xba\xb2\xfe\xcb\x8d\xc8`\xf3J\xf7\xb5Q\xe7'
p706
ssS'_home_dundee_myFlaskApp_jahelp_flask_lib_python2_7_site-packages_sqlalchemy_engine_default'
p707
(dp708
g6
(dp709
g8
S'_home_dundee_myFlaskApp_jahelp_flask_lib_python2_7_site-packages_sqlalchemy_engine_default.html'
p710
sg10
S'/home/dundee/myFlaskApp/jahelp/flask/lib/python2.7/site-packages/sqlalchemy/engine/default'
p711
sg12
g13
(g14
g15
NtRp712
(dp713
g18
I1
sg19
I159
sg20
I425
sg21
I0
sg22
I32
sg23
I266
sg24
I106
sbssg25
S'\xcb\xb7J\x1c\x17\xe3\x15\xe1\xd4`=b\xf9\xad\xf3\xc3'
p714
ssS'_home_dundee_myFlaskApp_jahelp_flask_lib_python2_7_site-packages_sqlalchemy_processors'
p715
(dp716
g6
(dp717
g8
S'_home_dundee_myFlaskApp_jahelp_flask_lib_python2_7_site-packages_sqlalchemy_processors.html'
p718
sg10
S'/home/dundee/myFlaskApp/jahelp/flask/lib/python2.7/site-packages/sqlalchemy/processors'
p719
sg12
g13
(g14
g15
NtRp720
(dp721
g18
I1
sg19
I18
sg20
I65
sg21
I0
sg22
I2
sg23
I54
sg24
I14
sbssg25
S'\xdf\x86\x06\x0c_\xd0Y\x14\xe6^h&K\x1a\xf5\xb8'
p722
ssS'_home_dundee_myFlaskApp_jahelp_flask_lib_python2_7_site-packages_sqlalchemy_orm_strategies'
p723
(dp724
g6
(dp725
g8
S'_home_dundee_myFlaskApp_jahelp_flask_lib_python2_7_site-packages_sqlalchemy_orm_strategies.html'
p726
sg10
S'/home/dundee/myFlaskApp/jahelp/flask/lib/python2.7/site-packages/sqlalchemy/orm/strategies'
p727
sg12
g13
(g14
g15
NtRp728
(dp729
g18
I1
sg19
I324
sg20
I652
sg21
I0
sg22
I28
sg23
I564
sg24
I277
sbssg25
S'w\xd8s\xf5\x84\x0f\xfe\x05\xa6\xbf\xa3\xcf\x7f\x95x\xd3'
p730
ssS'_home_dundee_myFlaskApp_jahelp_flask_lib_python2_7_site-packages_wtforms_validators'
p731
(dp732
g6
(dp733
g63
S'_home_dundee_myFlaskApp_jahelp_flask_lib_python2_7_site-packages_wtforms_validators.html'
p734
sg65
S'/home/dundee/myFlaskApp/jahelp/flask/lib/python2.7/site-packages/wtforms/validators'
p735
sg67
g13
(g14
g15
NtRp736
(dp737
g18
I1
sg19
I96
sg20
I225
sg21
I0
sg22
I5
sg23
I209
sg24
I89
sbssg25
S'\x7f\x87\xfefe\x93b\xa8\x10~o\x9dN\xa9J\xc6'
p738
ssS'_home_dundee_myFlaskApp_jahelp_flask_lib_python2_7_site-packages_wtforms_fields_core'
p739
(dp740
g6
(dp741
g63
S'_home_dundee_myFlaskApp_jahelp_flask_lib_python2_7_site-packages_wtforms_fields_core.html'
p742
sg65
S'/home/dundee/myFlaskApp/jahelp/flask/lib/python2.7/site-packages/wtforms/fields/core'
p743
sg67
g13
(g14
g15
NtRp744
(dp745
g18
I1
sg19
I140
sg20
I484
sg21
I0
sg22
I11
sg23
I395
sg24
I111
sbssg25
S'\xfeP\xe2-\xe7\x9a2\xf4\xa4\xaa\x0ed\n\xe6J\x00'
p746
ssS'_home_dundee_myFlaskApp_jahelp_flask_lib_python2_7_site-packages_sqlalchemy_dialects_sqlite_pysqlite'
p747
(dp748
g6
(dp749
g8
S'_home_dundee_myFlaskApp_jahelp_flask_lib_python2_7_site-packages_sqlalchemy_dialects_sqlite_pysqlite.html'
p750
sg10
S'/home/dundee/myFlaskApp/jahelp/flask/lib/python2.7/site-packages/sqlalchemy/dialects/sqlite/pysqlite'
p751
sg12
g13
(g14
g15
NtRp752
(dp753
g18
I1
sg19
I20
sg20
I65
sg21
I0
sg22
I4
sg23
I20
sg24
I16
sbssg25
S'\x84\xaa\xeb\xcfM\xbc\xab1\x9d?\xcfH\xc1!/A'
p754
ssS'_home_dundee_myFlaskApp_jahelp_flask_lib_python2_7_site-packages_sqlalchemy_sql_util'
p755
(dp756
g6
(dp757
g8
S'_home_dundee_myFlaskApp_jahelp_flask_lib_python2_7_site-packages_sqlalchemy_sql_util.html'
p758
sg10
S'/home/dundee/myFlaskApp/jahelp/flask/lib/python2.7/site-packages/sqlalchemy/sql/util'
p759
sg12
g13
(g14
g15
NtRp760
(dp761
g18
I1
sg19
I225
sg20
I404
sg21
I0
sg22
I5
sg23
I379
sg24
I214
sbssg25
S't\x8b\x07=\x1e\xa3\xcd\xfb\x12\x08\x87\xfdo\xb6\x9c\xf3'
p762
ssS'_home_dundee_myFlaskApp_jahelp_flask_lib_python2_7_site-packages_sqlalchemy_interfaces'
p763
(dp764
g6
(dp765
g8
S'_home_dundee_myFlaskApp_jahelp_flask_lib_python2_7_site-packages_sqlalchemy_interfaces.html'
p766
sg10
S'/home/dundee/myFlaskApp/jahelp/flask/lib/python2.7/site-packages/sqlalchemy/interfaces'
p767
sg12
g13
(g14
g15
NtRp768
(dp769
g18
I1
sg19
I16
sg20
I69
sg21
I0
sg22
I0
sg23
I40
sg24
I16
sbssg25
S'\x18\xc7\x148\xfb[\x06\x06L\xad\xa3\x8a\xad\xbd1\x80'
p770
ssS'_home_dundee_myFlaskApp_jahelp_flask_lib_python2_7_site-packages_flask_config'
p771
(dp772
g6
(dp773
g8
S'_home_dundee_myFlaskApp_jahelp_flask_lib_python2_7_site-packages_flask_config.html'
p774
sg10
S'/home/dundee/myFlaskApp/jahelp/flask/lib/python2.7/site-packages/flask/config'
p775
sg12
g13
(g14
g15
NtRp776
(dp777
g18
I1
sg19
I16
sg20
I51
sg21
I0
sg22
I2
sg23
I47
sg24
I14
sbssg25
S'\x87\x0f+J p_X\xa7W\x98\x91=&\xf3\x04'
p778
ssS'_home_dundee_myFlaskApp_jahelp_flask_lib_python2_7_site-packages_jinja2_environment'
p779
(dp780
g6
(dp781
g8
S'_home_dundee_myFlaskApp_jahelp_flask_lib_python2_7_site-packages_jinja2_environment.html'
p782
sg10
S'/home/dundee/myFlaskApp/jahelp/flask/lib/python2.7/site-packages/jinja2/environment'
p783
sg12
g13
(g14
g15
NtRp784
(dp785
g18
I1
sg19
I177
sg20
I488
sg21
I0
sg22
I12
sg23
I415
sg24
I153
sbssg25
S"f\x0e\xad([\xa6o\x86\xf2\x13\x82'\x11F\xde\xe2"
p786
ssS'_home_dundee_myFlaskApp_jahelp_flask_lib_python2_7_site-packages_sqlalchemy_pool'
p787
(dp788
g6
(dp789
g8
S'_home_dundee_myFlaskApp_jahelp_flask_lib_python2_7_site-packages_sqlalchemy_pool.html'
p790
sg10
S'/home/dundee/myFlaskApp/jahelp/flask/lib/python2.7/site-packages/sqlalchemy/pool'
p791
sg12
g13
(g14
g15
NtRp792
(dp793
g18
I1
sg19
I126
sg20
I459
sg21
I0
sg22
I23
sg23
I388
sg24
I99
sbssg25
S'\xca\x98L\xb7l\n\xf7\xff\xa1k-\x8f\x06\\u\x87'
p794
ssS'_home_dundee_myFlaskApp_jahelp_flask_lib_python2_7_site-packages_sqlalchemy_orm_deprecated_interfaces'
p795
(dp796
g6
(dp797
g8
S'_home_dundee_myFlaskApp_jahelp_flask_lib_python2_7_site-packages_sqlalchemy_orm_deprecated_interfaces.html'
p798
sg10
S'/home/dundee/myFlaskApp/jahelp/flask/lib/python2.7/site-packages/sqlalchemy/orm/deprecated_interfaces'
p799
sg12
g13
(g14
g15
NtRp800
(dp801
g18
I1
sg19
I34
sg20
I88
sg21
I0
sg22
I0
sg23
I83
sg24
I30
sbssg25
S"\xb3\xf5\xc8'l\xaf\xb5\x03\x14\xa5\xaa\xbe\x10\x15\xdf\x7f"
p802
ssS'_home_dundee_myFlaskApp_jahelp_flask_lib_python2_7_site-packages_jinja2_utils'
p803
(dp804
g6
(dp805
g8
S'_home_dundee_myFlaskApp_jahelp_flask_lib_python2_7_site-packages_jinja2_utils.html'
p806
sg10
S'/home/dundee/myFlaskApp/jahelp/flask/lib/python2.7/site-packages/jinja2/utils'
p807
sg12
g13
(g14
g15
NtRp808
(dp809
g18
I1
sg19
I82
sg20
I263
sg21
I0
sg22
I2
sg23
I241
sg24
I76
sbssg25
S'\x1d\n-\x99\xe7\x9f\xff\x88?\x9e\x92Q\x1f;\x8a\xcb'
p810
ssS'_home_dundee_myFlaskApp_jahelp_flask_lib_python2_7_site-packages_werkzeug__compat'
p811
(dp812
g6
(dp813
g8
S'_home_dundee_myFlaskApp_jahelp_flask_lib_python2_7_site-packages_werkzeug__compat.html'
p814
sg10
S'/home/dundee/myFlaskApp/jahelp/flask/lib/python2.7/site-packages/werkzeug/_compat'
p815
sg12
g13
(g14
g15
NtRp816
(dp817
g18
I1
sg19
I75
sg20
I146
sg21
I0
sg22
I8
sg23
I119
sg24
I52
sbssg25
S'\x82\\\xc2\xab\x8c\xe0M\xca\x00YFD\x0b\x91\xa7`'
p818
ssS'_home_dundee_myFlaskApp_jahelp_flask_lib_python2_7_site-packages_wtforms_ext_csrf_fields'
p819
(dp820
g6
(dp821
g8
S'_home_dundee_myFlaskApp_jahelp_flask_lib_python2_7_site-packages_wtforms_ext_csrf_fields.html'
p822
sg10
S'/home/dundee/myFlaskApp/jahelp/flask/lib/python2.7/site-packages/wtforms/ext/csrf/fields'
p823
sg12
g13
(g14
g15
NtRp824
(dp825
g18
I1
sg19
I0
sg20
I7
sg21
I0
sg22
I0
sg23
I6
sg24
I0
sbssg25
S'\xe0\xd4%\xc4S\x90x\x91\x86\x06$B\x03\x0e@+'
p826
ssS'_home_dundee_myFlaskApp_jahelp_flask_lib_python2_7_site-packages_werkzeug__internal'
p827
(dp828
g6
(dp829
g8
S'_home_dundee_myFlaskApp_jahelp_flask_lib_python2_7_site-packages_werkzeug__internal.html'
p830
sg10
S'/home/dundee/myFlaskApp/jahelp/flask/lib/python2.7/site-packages/werkzeug/_internal'
p831
sg12
g13
(g14
g15
NtRp832
(dp833
g18
I1
sg19
I84
sg20
I235
sg21
I0
sg22
I10
sg23
I174
sg24
I60
sbssg25
S'\x1a/^\xa6\xbf\xf1\x19\xd0\xaf:\x0b\xad\x99\xd7\xe3p'
p834
ssS'_home_dundee_myFlaskApp_jahelp_flask_lib_python2_7_site-packages_jinja2_runtime'
p835
(dp836
g6
(dp837
g8
S'_home_dundee_myFlaskApp_jahelp_flask_lib_python2_7_site-packages_jinja2_runtime.html'
p838
sg10
S'/home/dundee/myFlaskApp/jahelp/flask/lib/python2.7/site-packages/jinja2/runtime'
p839
sg12
g13
(g14
g15
NtRp840
(dp841
g18
I1
sg19
I106
sg20
I291
sg21
I0
sg22
I8
sg23
I232
sg24
I80
sbssg25
S'\x1a\xc4\xca\xce?"\xc2#\xef\xfd\xa7\x81\x10\x19e\xb2'
p842
ssS'_home_dundee_myFlaskApp_jahelp_flask_lib_python2_7_site-packages_blinker_base'
p843
(dp844
g6
(dp845
g8
S'_home_dundee_myFlaskApp_jahelp_flask_lib_python2_7_site-packages_blinker_base.html'
p846
sg10
S'/home/dundee/myFlaskApp/jahelp/flask/lib/python2.7/site-packages/blinker/base'
p847
sg12
g13
(g14
g15
NtRp848
(dp849
g18
I1
sg19
I50
sg20
I154
sg21
I0
sg22
I3
sg23
I149
sg24
I47
sbssg25
S'}\xafC\xd3R@\xb4\xdcL\x01\xc9\xf1k\x9f\xc10'
p850
sssS'version'
p851
S'3.7'
p852
sS'settings'
p853
S'\xb2\x9c\x8f\xa5Q\xda\x9c!\xf2_|\x7fF\xb85\xe3'
p854
sS'format'
p855
I1
s.