(dp1
S'files'
p2
(dp3
S'_home_dundee_myFlaskApp_jahelp_flask_lib_python2_7_site-packages_sqlalchemy_engine_url'
p4
(dp5
S'index'
p6
(dp7
S'html_filename'
p8
S'_home_dundee_myFlaskApp_jahelp_flask_lib_python2_7_site-packages_sqlalchemy_engine_url.html'
p9
sS'name'
p10
S'/home/dundee/myFlaskApp/jahelp/flask/lib/python2.7/site-packages/sqlalchemy/engine/url'
p11
sS'nums'
p12
ccopy_reg
_reconstructor
p13
(ccoverage.results
Numbers
p14
c__builtin__
object
p15
NtRp16
(dp17
S'n_files'
p18
I1
sS'n_branches'
p19
I57
sS'n_statements'
p20
I104
sS'n_excluded'
p21
I0
sS'n_partial_branches'
p22
I7
sS'n_missing'
p23
I72
sS'n_missing_branches'
p24
I48
sbssS'hash'
p25
S'\x17\xbf\xadof\xbc\x05\xcd\xe7\xa1\xa6|\x02-\x85\x87'
p26
ssS'_home_dundee_myFlaskApp_jahelp_flask_lib_python2_7_site-packages_sqlalchemy_events'
p27
(dp28
g6
(dp29
g8
S'_home_dundee_myFlaskApp_jahelp_flask_lib_python2_7_site-packages_sqlalchemy_events.html'
p30
sg10
S'/home/dundee/myFlaskApp/jahelp/flask/lib/python2.7/site-packages/sqlalchemy/events'
p31
sg12
g13
(g14
g15
NtRp32
(dp33
g18
I1
sg19
I68
sg20
I69
sg21
I0
sg22
I3
sg23
I51
sg24
I61
sbssg25
S'd\xbd\x19\x12\xb2\x9d\x13\xbcY\xf12@\xcf\x9a\x01\x84'
p34
ssS'_home_dundee_myFlaskApp_jahelp_flask_lib_python2_7_site-packages_sqlalchemy_types'
p35
(dp36
g6
(dp37
g8
S'_home_dundee_myFlaskApp_jahelp_flask_lib_python2_7_site-packages_sqlalchemy_types.html'
p38
sg10
S'/home/dundee/myFlaskApp/jahelp/flask/lib/python2.7/site-packages/sqlalchemy/types'
p39
sg12
g13
(g14
g15
NtRp40
(dp41
g18
I1
sg19
I186
sg20
I669
sg21
I0
sg22
I12
sg23
I599
sg24
I157
sbssg25
S'wDR\x17\xef\x8a\xea\xb3Vo)\xee\x9aP\x9d\xe2'
p42
ssS'_home_dundee_myFlaskApp_jahelp_flask_lib_python2_7_site-packages_sqlalchemy_sql_expression'
p43
(dp44
g6
(dp45
S'html_filename'
p46
S'_home_dundee_myFlaskApp_jahelp_flask_lib_python2_7_site-packages_sqlalchemy_sql_expression.html'
p47
sS'name'
p48
S'/home/dundee/myFlaskApp/jahelp/flask/lib/python2.7/site-packages/sqlalchemy/sql/expression'
p49
sS'nums'
p50
g13
(g14
g15
NtRp51
(dp52
g18
I1
sg19
I608
sg20
I1824
sg21
I0
sg22
I49
sg23
I1592
sg24
I510
sbssg25
S'\x9c0\xa3\x91\xed\xc1\x95\xe2\xf7^3\x15\xd1\xc4\xf2O'
p53
ssS'_home_dundee_myFlaskApp_jahelp_flask_lib_python2_7_site-packages_sqlalchemy_orm_state'
p54
(dp55
g6
(dp56
g46
S'_home_dundee_myFlaskApp_jahelp_flask_lib_python2_7_site-packages_sqlalchemy_orm_state.html'
p57
sg48
S'/home/dundee/myFlaskApp/jahelp/flask/lib/python2.7/site-packages/sqlalchemy/orm/state'
p58
sg50
g13
(g14
g15
NtRp59
(dp60
g18
I1
sg19
I97
sg20
I267
sg21
I0
sg22
I8
sg23
I203
sg24
I72
sbssg25
S'\xda\x06\xf4\xa5\xf7(\x12\xa4\x7fz\xf6Y!\xd3\xd98'
p61
ssS'app_views'
p62
(dp63
S'index'
p64
(dp65
g46
S'app_views.html'
p66
sg48
S'app/views'
p67
sg50
g13
(g14
g15
NtRp68
(dp69
g18
I1
sg19
I206
sg20
I717
sg21
I0
sg22
I7
sg23
I619
sg24
I175
sbssS'hash'
p70
S'\x18\xea\xc9.\x90\xf0\xd3\x91\xa1b\x03\xac\xd0\x82\x02\x1b'
p71
ssS'_home_dundee_myFlaskApp_jahelp_flask_lib_python2_7_site-packages_sqlalchemy_orm_dynamic'
p72
(dp73
g6
(dp74
g46
S'_home_dundee_myFlaskApp_jahelp_flask_lib_python2_7_site-packages_sqlalchemy_orm_dynamic.html'
p75
sg48
S'/home/dundee/myFlaskApp/jahelp/flask/lib/python2.7/site-packages/sqlalchemy/orm/dynamic'
p76
sg50
g13
(g14
g15
NtRp77
(dp78
g18
I1
sg19
I57
sg20
I176
sg21
I0
sg22
I9
sg23
I145
sg24
I48
sbssg25
S"D\x8f\xf0\xfb\x98%'Rr\xad\\\x97s\x88\x9e\x98"
p79
ssS'_home_dundee_myFlaskApp_jahelp_flask_lib_python2_7_site-packages_werkzeug_datastructures'
p80
(dp81
g6
(dp82
g8
S'_home_dundee_myFlaskApp_jahelp_flask_lib_python2_7_site-packages_werkzeug_datastructures.html'
p83
sg10
S'/home/dundee/myFlaskApp/jahelp/flask/lib/python2.7/site-packages/werkzeug/datastructures'
p84
sg12
g13
(g14
g15
NtRp85
(dp86
g18
I1
sg19
I515
sg20
I1276
sg21
I0
sg22
I27
sg23
I1160
sg24
I458
sbssg25
S'k=p$\xea4\xa0\xf3yj\xfdcn\xb8\x17\xd6'
p87
ssS'_home_dundee_myFlaskApp_jahelp_flask_lib_python2_7_site-packages_sqlalchemy_processors'
p88
(dp89
g6
(dp90
g8
S'_home_dundee_myFlaskApp_jahelp_flask_lib_python2_7_site-packages_sqlalchemy_processors.html'
p91
sg10
S'/home/dundee/myFlaskApp/jahelp/flask/lib/python2.7/site-packages/sqlalchemy/processors'
p92
sg12
g13
(g14
g15
NtRp93
(dp94
g18
I1
sg19
I18
sg20
I65
sg21
I0
sg22
I2
sg23
I54
sg24
I14
sbssg25
S'\xdf\x86\x06\x0c_\xd0Y\x14\xe6^h&K\x1a\xf5\xb8'
p95
ssS'_home_dundee_myFlaskApp_jahelp_flask_lib_python2_7_site-packages_sqlalchemy_util_langhelpers'
p96
(dp97
g6
(dp98
g8
S'_home_dundee_myFlaskApp_jahelp_flask_lib_python2_7_site-packages_sqlalchemy_util_langhelpers.html'
p99
sg10
S'/home/dundee/myFlaskApp/jahelp/flask/lib/python2.7/site-packages/sqlalchemy/util/langhelpers'
p100
sg12
g13
(g14
g15
NtRp101
(dp102
g18
I1
sg19
I199
sg20
I448
sg21
I0
sg22
I17
sg23
I350
sg24
I162
sbssg25
S'V\x82\xf7Ia=\x96\xe0\x82\x07\xe8\xda\xf4\x0f\xec{'
p103
ssS'_home_dundee_myFlaskApp_jahelp_flask_lib_python2_7_site-packages_sqlalchemy_orm_scoping'
p104
(dp105
g6
(dp106
g8
S'_home_dundee_myFlaskApp_jahelp_flask_lib_python2_7_site-packages_sqlalchemy_orm_scoping.html'
p107
sg10
S'/home/dundee/myFlaskApp/jahelp/flask/lib/python2.7/site-packages/sqlalchemy/orm/scoping'
p108
sg12
g13
(g14
g15
NtRp109
(dp110
g18
I1
sg19
I22
sg20
I63
sg21
I0
sg22
I1
sg23
I57
sg24
I19
sbssg25
S'\xa5\xe5]m\xbf\x04\x13j\xec"*\x0e\xb0\r\xc2X'
p111
ssS'_home_dundee_myFlaskApp_jahelp_flask_lib_python2_7_site-packages_sqlalchemy_orm_sync'
p112
(dp113
g6
(dp114
g8
S'_home_dundee_myFlaskApp_jahelp_flask_lib_python2_7_site-packages_sqlalchemy_orm_sync.html'
p115
sg10
S'/home/dundee/myFlaskApp/jahelp/flask/lib/python2.7/site-packages/sqlalchemy/orm/sync'
p116
sg12
g13
(g14
g15
NtRp117
(dp118
g18
I1
sg19
I18
sg20
I55
sg21
I0
sg22
I1
sg23
I50
sg24
I17
sbssg25
S'C\x03\xe4;d\x98\xc5d\x8a\xd1\xe4\xc1\x12F\xa0\x97'
p119
ssS'_home_dundee_myFlaskApp_jahelp_flask_lib_python2_7_site-packages_flask_helpers'
p120
(dp121
g6
(dp122
g8
S'_home_dundee_myFlaskApp_jahelp_flask_lib_python2_7_site-packages_flask_helpers.html'
p123
sg10
S'/home/dundee/myFlaskApp/jahelp/flask/lib/python2.7/site-packages/flask/helpers'
p124
sg12
g13
(g14
g15
NtRp125
(dp126
g18
I1
sg19
I129
sg20
I289
sg21
I0
sg22
I12
sg23
I253
sg24
I117
sbssg25
S'\xc1B\x13\xf8\xcd+\xd9\r\xe5"\x10v\x15\x9f}r'
p127
ssS'_home_dundee_myFlaskApp_jahelp_flask_lib_python2_7_site-packages_werkzeug_wrappers'
p128
(dp129
g6
(dp130
g8
S'_home_dundee_myFlaskApp_jahelp_flask_lib_python2_7_site-packages_werkzeug_wrappers.html'
p131
sg10
S'/home/dundee/myFlaskApp/jahelp/flask/lib/python2.7/site-packages/werkzeug/wrappers'
p132
sg12
g13
(g14
g15
NtRp133
(dp134
g18
I1
sg19
I185
sg20
I567
sg21
I0
sg22
I31
sg23
I427
sg24
I127
sbssg25
S'\x86\xe4zr\xd9\x03\x89s\xab1\xd31!\x029\xe1'
p135
ssS'_home_dundee_myFlaskApp_jahelp_flask_lib_python2_7_site-packages_werkzeug_test'
p136
(dp137
g6
(dp138
g8
S'_home_dundee_myFlaskApp_jahelp_flask_lib_python2_7_site-packages_werkzeug_test.html'
p139
sg10
S'/home/dundee/myFlaskApp/jahelp/flask/lib/python2.7/site-packages/werkzeug/test'
p140
sg12
g13
(g14
g15
NtRp141
(dp142
g18
I1
sg19
I176
sg20
I457
sg21
I0
sg22
I42
sg23
I177
sg24
I104
sbssg25
S'\xdc\xc2\xdf\xe7\xe7\xef\x053\xb3\xd0\xc5\xff\x95:\x97f'
p143
ssS'_home_dundee_myFlaskApp_jahelp_flask_lib_python2_7_site-packages_jinja2_nodes'
p144
(dp145
g6
(dp146
g8
S'_home_dundee_myFlaskApp_jahelp_flask_lib_python2_7_site-packages_jinja2_nodes.html'
p147
sg10
S'/home/dundee/myFlaskApp/jahelp/flask/lib/python2.7/site-packages/jinja2/nodes'
p148
sg12
g13
(g14
g15
NtRp149
(dp150
g18
I1
sg19
I135
sg20
I423
sg21
I0
sg22
I16
sg23
I334
sg24
I81
sbssg25
S'\x13\xb0+\xf3\xd8\xf7\xae8\xf6\x80\xca\x94\x05\x18r='
p151
ssS'_home_dundee_myFlaskApp_jahelp_flask_lib_python2_7_site-packages_sqlalchemy_orm_properties'
p152
(dp153
g6
(dp154
g8
S'_home_dundee_myFlaskApp_jahelp_flask_lib_python2_7_site-packages_sqlalchemy_orm_properties.html'
p155
sg10
S'/home/dundee/myFlaskApp/jahelp/flask/lib/python2.7/site-packages/sqlalchemy/orm/properties'
p156
sg12
g13
(g14
g15
NtRp157
(dp158
g18
I1
sg19
I352
sg20
I572
sg21
I0
sg22
I8
sg23
I554
sg24
I342
sbssg25
S'\x88\x96\x7fG\xf71\xfb@l_v\xee\xb8\x7f\xbc6'
p159
ssS'_home_dundee_myFlaskApp_jahelp_flask_lib_python2_7_site-packages_sqlalchemy_util_topological'
p160
(dp161
g6
(dp162
g8
S'_home_dundee_myFlaskApp_jahelp_flask_lib_python2_7_site-packages_sqlalchemy_util_topological.html'
p163
sg10
S'/home/dundee/myFlaskApp/jahelp/flask/lib/python2.7/site-packages/sqlalchemy/util/topological'
p164
sg12
g13
(g14
g15
NtRp165
(dp166
g18
I1
sg19
I26
sg20
I46
sg21
I0
sg22
I3
sg23
I16
sg24
I3
sbssg25
S'\xf7N\x89\x87K\xa2\x9b\xb2?"$\xed#\xa5c\xc1'
p167
ssS'_home_dundee_myFlaskApp_jahelp_flask_lib_python2_7_site-packages_sqlalchemy_event'
p168
(dp169
g6
(dp170
g8
S'_home_dundee_myFlaskApp_jahelp_flask_lib_python2_7_site-packages_sqlalchemy_event.html'
p171
sg10
S'/home/dundee/myFlaskApp/jahelp/flask/lib/python2.7/site-packages/sqlalchemy/event'
p172
sg12
g13
(g14
g15
NtRp173
(dp174
g18
I1
sg19
I79
sg20
I209
sg21
I0
sg22
I15
sg23
I160
sg24
I57
sbssg25
S'\x99\xa4.\x9a\xaa\xa7H6;\xb4\xe9\x94+\xba\x1a4'
p175
ssS'app_momentjs'
p176
(dp177
g64
(dp178
S'html_filename'
p179
S'app_momentjs.html'
p180
sS'name'
p181
S'app/momentjs'
p182
sS'nums'
p183
g13
(g14
g15
NtRp184
(dp185
g18
I1
sg19
I0
sg20
I12
sg21
I0
sg22
I0
sg23
I9
sg24
I0
sbssg70
S'P\xd7\xed\xe4\x00\x02jZ\x13.&h\xcc\xcf\xa4\xcb'
p186
ssS'_home_dundee_myFlaskApp_jahelp_flask_lib_python2_7_site-packages_werkzeug_urls'
p187
(dp188
g6
(dp189
g8
S'_home_dundee_myFlaskApp_jahelp_flask_lib_python2_7_site-packages_werkzeug_urls.html'
p190
sg10
S'/home/dundee/myFlaskApp/jahelp/flask/lib/python2.7/site-packages/werkzeug/urls'
p191
sg12
g13
(g14
g15
NtRp192
(dp193
g18
I1
sg19
I183
sg20
I371
sg21
I0
sg22
I43
sg23
I189
sg24
I94
sbssg25
S'\x95\xb6\x85h\x81\x11l\x98AMPxqE&\x04'
p194
ssS'_home_dundee_myFlaskApp_jahelp_flask_lib_python2_7_site-packages_jinja2__compat'
p195
(dp196
g6
(dp197
g8
S'_home_dundee_myFlaskApp_jahelp_flask_lib_python2_7_site-packages_jinja2__compat.html'
p198
sg10
S'/home/dundee/myFlaskApp/jahelp/flask/lib/python2.7/site-packages/jinja2/_compat'
p199
sg12
g13
(g14
g15
NtRp200
(dp201
g18
I1
sg19
I30
sg20
I98
sg21
I0
sg22
I2
sg23
I95
sg24
I28
sbssg25
S'\x8d\xce\x10=\xfe\x1fp\xc93\xedi+\xe7\xf6\x7f\x9b'
p202
ssS'_home_dundee_myFlaskApp_jahelp_flask_lib_python2_7_site-packages_sqlalchemy_orm_events'
p203
(dp204
g6
(dp205
g8
S'_home_dundee_myFlaskApp_jahelp_flask_lib_python2_7_site-packages_sqlalchemy_orm_events.html'
p206
sg10
S'/home/dundee/myFlaskApp/jahelp/flask/lib/python2.7/site-packages/sqlalchemy/orm/events'
p207
sg12
g13
(g14
g15
NtRp208
(dp209
g18
I1
sg19
I143
sg20
I157
sg21
I0
sg22
I5
sg23
I148
sg24
I138
sbssg25
S'\x8ao\xbb\xea>\xd8\x90\x82\xa8\xb7\xd4\x8c1\xd4\x95\xc5'
p210
ssS'_home_dundee_myFlaskApp_jahelp_flask_lib_python2_7_site-packages_flask_exthook'
p211
(dp212
g6
(dp213
g8
S'_home_dundee_myFlaskApp_jahelp_flask_lib_python2_7_site-packages_flask_exthook.html'
p214
sg10
S'/home/dundee/myFlaskApp/jahelp/flask/lib/python2.7/site-packages/flask/exthook'
p215
sg12
g13
(g14
g15
NtRp216
(dp217
g18
I1
sg19
I24
sg20
I53
sg21
I0
sg22
I1
sg23
I52
sg24
I23
sbssg25
S'\x8b0\x03\xads;\xfb\xda\x17\x94u\x11O\x81]\x1b'
p218
ssS'_home_dundee_myFlaskApp_jahelp_flask_lib_python2_7_site-packages_werkzeug_routing'
p219
(dp220
g6
(dp221
g8
S'_home_dundee_myFlaskApp_jahelp_flask_lib_python2_7_site-packages_werkzeug_routing.html'
p222
sg10
S'/home/dundee/myFlaskApp/jahelp/flask/lib/python2.7/site-packages/werkzeug/routing'
p223
sg12
g13
(g14
g15
NtRp224
(dp225
g18
I1
sg19
I263
sg20
I584
sg21
I0
sg22
I36
sg23
I459
sg24
I189
sbssg25
S'\x858\x9c\x16\xa7\xec\xb3W[\x83a\r\xc2<"\xd4'
p226
ssS'_home_dundee_myFlaskApp_jahelp_flask_lib_python2_7_site-packages_flask_globals'
p227
(dp228
g6
(dp229
g8
S'_home_dundee_myFlaskApp_jahelp_flask_lib_python2_7_site-packages_flask_globals.html'
p230
sg10
S'/home/dundee/myFlaskApp/jahelp/flask/lib/python2.7/site-packages/flask/globals'
p231
sg12
g13
(g14
g15
NtRp232
(dp233
g18
I1
sg19
I4
sg20
I19
sg21
I0
sg22
I2
sg23
I13
sg24
I2
sbssg25
S'^\xb2\x91\xaf]\xfaK\xac\x03BA\x90\xdeT\x0c\xc8'
p234
ssS'_home_dundee_myFlaskApp_jahelp_flask_lib_python2_7_site-packages_wtforms_compat'
p235
(dp236
g6
(dp237
g8
S'_home_dundee_myFlaskApp_jahelp_flask_lib_python2_7_site-packages_wtforms_compat.html'
p238
sg10
S'/home/dundee/myFlaskApp/jahelp/flask/lib/python2.7/site-packages/wtforms/compat'
p239
sg12
g13
(g14
g15
NtRp240
(dp241
g18
I1
sg19
I10
sg20
I14
sg21
I0
sg22
I1
sg23
I13
sg24
I9
sbssg25
S'\xef,y\xce\xaem\xb5)\xd8\xb8Y\xef\x9f\xbc\xea\xb6'
p242
ssS'_home_dundee_myFlaskApp_jahelp_flask_lib_python2_7_site-packages_sqlalchemy_orm_attributes'
p243
(dp244
g6
(dp245
g46
S'_home_dundee_myFlaskApp_jahelp_flask_lib_python2_7_site-packages_sqlalchemy_orm_attributes.html'
p246
sg48
S'/home/dundee/myFlaskApp/jahelp/flask/lib/python2.7/site-packages/sqlalchemy/orm/attributes'
p247
sg50
g13
(g14
g15
NtRp248
(dp249
g18
I1
sg19
I225
sg20
I610
sg21
I0
sg22
I13
sg23
I548
sg24
I189
sbssg25
S'\xc8\xd7g\x05\xa1\x89\x00s:\xf9)\x9b\x19D\xb8\xdd'
p250
ssS'app___init__'
p251
(dp252
g64
(dp253
g8
S'app___init__.html'
p254
sg10
S'app/__init__'
p255
sg12
g13
(g14
g15
NtRp256
(dp257
g18
I1
sg19
I2
sg20
I30
sg21
I0
sg22
I0
sg23
I27
sg24
I2
sbssg70
S'\xe3\xaar\xa5&\xcdv\x8bJ\xb4\xc6\xf3\xd6f\xc1b'
p258
ssS'_home_dundee_myFlaskApp_jahelp_flask_lib_python2_7_site-packages_flask_templating'
p259
(dp260
g6
(dp261
g8
S'_home_dundee_myFlaskApp_jahelp_flask_lib_python2_7_site-packages_flask_templating.html'
p262
sg10
S'/home/dundee/myFlaskApp/jahelp/flask/lib/python2.7/site-packages/flask/templating'
p263
sg12
g13
(g14
g15
NtRp264
(dp265
g18
I1
sg19
I26
sg20
I70
sg21
I0
sg22
I2
sg23
I56
sg24
I24
sbssg25
S'X\x80\xbc\xc1~YsX\x8cY\xdf`\xd2\x1c\x91\xdf'
p266
ssS'_home_dundee_myFlaskApp_jahelp_flask_lib_python2_7_site-packages_flask_testing'
p267
(dp268
g6
(dp269
g8
S'_home_dundee_myFlaskApp_jahelp_flask_lib_python2_7_site-packages_flask_testing.html'
p270
sg10
S'/home/dundee/myFlaskApp/jahelp/flask/lib/python2.7/site-packages/flask/testing'
p271
sg12
g13
(g14
g15
NtRp272
(dp273
g18
I1
sg19
I14
sg20
I52
sg21
I0
sg22
I1
sg23
I28
sg24
I11
sbssg25
S")'^\xe0\xaa\x98\xabj:\x168!=vEf"
p274
ssS'_home_dundee_myFlaskApp_jahelp_flask_lib_python2_7_site-packages_flask_wtf_form'
p275
(dp276
g6
(dp277
g8
S'_home_dundee_myFlaskApp_jahelp_flask_lib_python2_7_site-packages_flask_wtf_form.html'
p278
sg10
S'/home/dundee/myFlaskApp/jahelp/flask/lib/python2.7/site-packages/flask_wtf/form'
p279
sg12
g13
(g14
g15
NtRp280
(dp281
g18
I1
sg19
I32
sg20
I58
sg21
I0
sg22
I9
sg23
I31
sg24
I19
sbssg25
S'\xef\xa5cX\x9a\xf1\xa2\xc3Oq0\x02\x14O+\x05'
p282
ssS'_home_dundee_myFlaskApp_jahelp_flask_lib_python2_7_site-packages_sqlalchemy_dialects_sqlite_pysqlite'
p283
(dp284
g6
(dp285
g8
S'_home_dundee_myFlaskApp_jahelp_flask_lib_python2_7_site-packages_sqlalchemy_dialects_sqlite_pysqlite.html'
p286
sg10
S'/home/dundee/myFlaskApp/jahelp/flask/lib/python2.7/site-packages/sqlalchemy/dialects/sqlite/pysqlite'
p287
sg12
g13
(g14
g15
NtRp288
(dp289
g18
I1
sg19
I20
sg20
I65
sg21
I0
sg22
I4
sg23
I20
sg24
I16
sbssg25
S'\x84\xaa\xeb\xcfM\xbc\xab1\x9d?\xcfH\xc1!/A'
p290
ssS'_home_dundee_myFlaskApp_jahelp_flask_lib_python2_7_site-packages_werkzeug_wsgi'
p291
(dp292
g6
(dp293
g8
S'_home_dundee_myFlaskApp_jahelp_flask_lib_python2_7_site-packages_werkzeug_wsgi.html'
p294
sg10
S'/home/dundee/myFlaskApp/jahelp/flask/lib/python2.7/site-packages/werkzeug/wsgi'
p295
sg12
g13
(g14
g15
NtRp296
(dp297
g18
I1
sg19
I213
sg20
I449
sg21
I0
sg22
I21
sg23
I362
sg24
I180
sbssg25
S'>f2\x87t\xd0\x1d\x85\xe5+\xf4\xcc\xcb\xfa\xdeH'
p298
ssS'_home_dundee_myFlaskApp_jahelp_flask_lib_python2_7_site-packages_flask_sqlalchemy'
p299
(dp300
g6
(dp301
g8
S'_home_dundee_myFlaskApp_jahelp_flask_lib_python2_7_site-packages_flask_sqlalchemy.html'
p302
sg10
S'/home/dundee/myFlaskApp/jahelp/flask/lib/python2.7/site-packages/flask_sqlalchemy'
p303
sg12
g13
(g14
g15
NtRp304
(dp305
g18
I1
sg19
I127
sg20
I409
sg21
I0
sg22
I22
sg23
I280
sg24
I85
sbssg25
S'6q\xa1\x195Q\xef\xab?\xb0\x94%zP\xd7\xc7'
p306
ssS'_home_dundee_myFlaskApp_jahelp_flask_lib_python2_7_site-packages_sqlalchemy_dialects_sqlite___init__'
p307
(dp308
g6
(dp309
g8
S'_home_dundee_myFlaskApp_jahelp_flask_lib_python2_7_site-packages_sqlalchemy_dialects_sqlite___init__.html'
p310
sg10
S'/home/dundee/myFlaskApp/jahelp/flask/lib/python2.7/site-packages/sqlalchemy/dialects/sqlite/__init__'
p311
sg12
g13
(g14
g15
NtRp312
(dp313
g18
I1
sg19
I0
sg20
I4
sg21
I0
sg22
I0
sg23
I0
sg24
I0
sbssg25
S'\xf5xG\xf6\x9f%\xd4?00\xb1\xbb\x190\x9am'
p314
ssS'_home_dundee_myFlaskApp_jahelp_flask_lib_python2_7_site-packages_wtforms_ext_csrf_form'
p315
(dp316
g6
(dp317
g8
S'_home_dundee_myFlaskApp_jahelp_flask_lib_python2_7_site-packages_wtforms_ext_csrf_form.html'
p318
sg10
S'/home/dundee/myFlaskApp/jahelp/flask/lib/python2.7/site-packages/wtforms/ext/csrf/form'
p319
sg12
g13
(g14
g15
NtRp320
(dp321
g18
I1
sg19
I2
sg20
I18
sg21
I0
sg22
I0
sg23
I16
sg24
I2
sbssg25
S'\x9bt%*\x0e*\x96\x83[mT\xb9\x9e\xc2\x05w'
p322
ssS'_home_dundee_myFlaskApp_jahelp_flask_lib_python2_7_site-packages_markupsafe__native'
p323
(dp324
g6
(dp325
g8
S'_home_dundee_myFlaskApp_jahelp_flask_lib_python2_7_site-packages_markupsafe__native.html'
p326
sg10
S'/home/dundee/myFlaskApp/jahelp/flask/lib/python2.7/site-packages/markupsafe/_native'
p327
sg12
g13
(g14
g15
NtRp328
(dp329
g18
I1
sg19
I6
sg20
I15
sg21
I0
sg22
I0
sg23
I12
sg24
I4
sbssg25
S'\x99\x9d\xa8\x14&Yj\x9a\xa99C\xfciKY\x0b'
p330
ssS'_home_dundee_myFlaskApp_jahelp_flask_lib_python2_7_site-packages_werkzeug_contrib_securecookie'
p331
(dp332
g6
(dp333
g8
S'_home_dundee_myFlaskApp_jahelp_flask_lib_python2_7_site-packages_werkzeug_contrib_securecookie.html'
p334
sg10
S'/home/dundee/myFlaskApp/jahelp/flask/lib/python2.7/site-packages/werkzeug/contrib/securecookie'
p335
sg12
g13
(g14
g15
NtRp336
(dp337
g18
I1
sg19
I36
sg20
I102
sg21
I0
sg22
I12
sg23
I47
sg24
I14
sbssg25
S')apv\xc4\x85\xa2\x17\r\xf6\x973"nZ\xba'
p338
ssS'_home_dundee_myFlaskApp_jahelp_flask_lib_python2_7_site-packages_werkzeug_local'
p339
(dp340
g6
(dp341
g8
S'_home_dundee_myFlaskApp_jahelp_flask_lib_python2_7_site-packages_werkzeug_local.html'
p342
sg10
S'/home/dundee/myFlaskApp/jahelp/flask/lib/python2.7/site-packages/werkzeug/local'
p343
sg12
g13
(g14
g15
NtRp344
(dp345
g18
I1
sg19
I134
sg20
I210
sg21
I0
sg22
I8
sg23
I174
sg24
I126
sbssg25
S'\xd1\xda\xad\x0e">\xdc\x83\xcf\xd9\xbc\xea\xd0k\xe0\x94'
p346
ssS'_home_dundee_myFlaskApp_jahelp_flask_lib_python2_7_site-packages_flask_app'
p347
(dp348
g6
(dp349
g8
S'_home_dundee_myFlaskApp_jahelp_flask_lib_python2_7_site-packages_flask_app.html'
p350
sg10
S'/home/dundee/myFlaskApp/jahelp/flask/lib/python2.7/site-packages/flask/app'
p351
sg12
g13
(g14
g15
NtRp352
(dp353
g18
I1
sg19
I167
sg20
I484
sg21
I0
sg22
I26
sg23
I391
sg24
I124
sbssg25
S'\xc5\x1dx\x87ka=mP\xf0\xa1"H\xec\xbd\xa7'
p354
ssS'_home_dundee_myFlaskApp_jahelp_flask_lib_python2_7_site-packages_sqlalchemy_dialects_sqlite_base'
p355
(dp356
g6
(dp357
g8
S'_home_dundee_myFlaskApp_jahelp_flask_lib_python2_7_site-packages_sqlalchemy_dialects_sqlite_base.html'
p358
sg10
S'/home/dundee/myFlaskApp/jahelp/flask/lib/python2.7/site-packages/sqlalchemy/dialects/sqlite/base'
p359
sg12
g13
(g14
g15
NtRp360
(dp361
g18
I1
sg19
I131
sg20
I367
sg21
I0
sg22
I22
sg23
I193
sg24
I84
sbssg25
S'\xccB\x183\x97M\x82\xd5\xdb\x1389\x8cq\x00-'
p362
ssS'_home_dundee_myFlaskApp_jahelp_flask_lib_python2_7_site-packages_flask_ctx'
p363
(dp364
g6
(dp365
g8
S'_home_dundee_myFlaskApp_jahelp_flask_lib_python2_7_site-packages_flask_ctx.html'
p366
sg10
S'/home/dundee/myFlaskApp/jahelp/flask/lib/python2.7/site-packages/flask/ctx'
p367
sg12
g13
(g14
g15
NtRp368
(dp369
g18
I1
sg19
I25
sg20
I96
sg21
I0
sg22
I12
sg23
I41
sg24
I14
sbssg25
S'\x81\xa8+\xe7c\xe9oy\xac\x14C\xa9\x81\xbf\rS'
p370
ssS'_home_dundee_myFlaskApp_jahelp_flask_lib_python2_7_site-packages_sqlalchemy_orm_interfaces'
p371
(dp372
g6
(dp373
g8
S'_home_dundee_myFlaskApp_jahelp_flask_lib_python2_7_site-packages_sqlalchemy_orm_interfaces.html'
p374
sg10
S'/home/dundee/myFlaskApp/jahelp/flask/lib/python2.7/site-packages/sqlalchemy/orm/interfaces'
p375
sg12
g13
(g14
g15
NtRp376
(dp377
g18
I1
sg19
I95
sg20
I312
sg21
I0
sg22
I3
sg23
I288
sg24
I90
sbssg25
S"\x91\x8f\xc6\x8f\xd1~h%\x1b?(\xa6k\xa9?'"
p378
ssS'_home_dundee_myFlaskApp_jahelp_flask_lib_python2_7_site-packages_jinja2_lexer'
p379
(dp380
g6
(dp381
g8
S'_home_dundee_myFlaskApp_jahelp_flask_lib_python2_7_site-packages_jinja2_lexer.html'
p382
sg10
S'/home/dundee/myFlaskApp/jahelp/flask/lib/python2.7/site-packages/jinja2/lexer'
p383
sg12
g13
(g14
g15
NtRp384
(dp385
g18
I1
sg19
I138
sg20
I346
sg21
I0
sg22
I24
sg23
I193
sg24
I55
sbssg25
S'\xc9\x03\xb7\xc4\xd4\xbd\xc9\x9e\xc2\xdf\x0f04\xaf_\x8f'
p386
ssS'_home_dundee_myFlaskApp_jahelp_flask_lib_python2_7_site-packages_sqlalchemy_sql_compiler'
p387
(dp388
g6
(dp389
g8
S'_home_dundee_myFlaskApp_jahelp_flask_lib_python2_7_site-packages_sqlalchemy_sql_compiler.html'
p390
sg10
S'/home/dundee/myFlaskApp/jahelp/flask/lib/python2.7/site-packages/sqlalchemy/sql/compiler'
p391
sg12
g13
(g14
g15
NtRp392
(dp393
g18
I1
sg19
I541
sg20
I1007
sg21
I0
sg22
I93
sg23
I689
sg24
I355
sbssg25
S'P\xa7\x98\xc0 i+j\xb6\x17\x86\xd7O\xcb\x85\xaa'
p394
ssS'_home_dundee_myFlaskApp_jahelp_flask_lib_python2_7_site-packages_jinja2_ext'
p395
(dp396
g6
(dp397
g8
S'_home_dundee_myFlaskApp_jahelp_flask_lib_python2_7_site-packages_jinja2_ext.html'
p398
sg10
S'/home/dundee/myFlaskApp/jahelp/flask/lib/python2.7/site-packages/jinja2/ext'
p399
sg12
g13
(g14
g15
NtRp400
(dp401
g18
I1
sg19
I139
sg20
I305
sg21
I0
sg22
I1
sg23
I292
sg24
I136
sbssg25
S'W9\xc6a}\xf3z@j\x16\xa8\xa8\x08\xe4\x95\xc5'
p402
ssS'_home_dundee_myFlaskApp_jahelp_flask_lib_python2_7_site-packages_flask_sessions'
p403
(dp404
g6
(dp405
g8
S'_home_dundee_myFlaskApp_jahelp_flask_lib_python2_7_site-packages_flask_sessions.html'
p406
sg10
S'/home/dundee/myFlaskApp/jahelp/flask/lib/python2.7/site-packages/flask/sessions'
p407
sg12
g13
(g14
g15
NtRp408
(dp409
g18
I1
sg19
I12
sg20
I57
sg21
I0
sg22
I5
sg23
I39
sg24
I5
sbssg25
S'\x80d\x9b\x056\xda\xd4\xa5R\xbcEw\xf1\r\x9bx'
p410
ssS'app_models'
p411
(dp412
g64
(dp413
S'html_filename'
p414
S'app_models.html'
p415
sS'name'
p416
S'app/models'
p417
sS'nums'
p418
g13
(g14
g15
NtRp419
(dp420
g18
I1
sg19
I0
sg20
I125
sg21
I0
sg22
I0
sg23
I120
sg24
I0
sbssg70
S'\xfd\t\xf9\x80\x9d\xd9v\x9fb\x02\x84\xc3(\xbbm\xd6'
p421
ssS'_home_dundee_myFlaskApp_jahelp_flask_lib_python2_7_site-packages_sqlalchemy_engine_strategies'
p422
(dp423
g6
(dp424
g8
S'_home_dundee_myFlaskApp_jahelp_flask_lib_python2_7_site-packages_sqlalchemy_engine_strategies.html'
p425
sg10
S'/home/dundee/myFlaskApp/jahelp/flask/lib/python2.7/site-packages/sqlalchemy/engine/strategies'
p426
sg12
g13
(g14
g15
NtRp427
(dp428
g18
I1
sg19
I40
sg20
I123
sg21
I0
sg22
I8
sg23
I76
sg24
I20
sbssg25
S'\x993\xee\x1cpza\xca\xe4\xee\x18\xd7\xddPdq'
p429
ssS'_home_dundee_myFlaskApp_jahelp_flask_lib_python2_7_site-packages_sqlalchemy_sql_operators'
p430
(dp431
g6
(dp432
g8
S'_home_dundee_myFlaskApp_jahelp_flask_lib_python2_7_site-packages_sqlalchemy_sql_operators.html'
p433
sg10
S'/home/dundee/myFlaskApp/jahelp/flask/lib/python2.7/site-packages/sqlalchemy/sql/operators'
p434
sg12
g13
(g14
g15
NtRp435
(dp436
g18
I1
sg19
I2
sg20
I155
sg21
I0
sg22
I1
sg23
I152
sg24
I1
sbssg25
S'h\xa4\x841qH>G(\x17\x92\xc6p$\xdb\xb7'
p437
ssS'_home_dundee_myFlaskApp_jahelp_flask_lib_python2_7_site-packages_sqlalchemy_engine_base'
p438
(dp439
g6
(dp440
g8
S'_home_dundee_myFlaskApp_jahelp_flask_lib_python2_7_site-packages_sqlalchemy_engine_base.html'
p441
sg10
S'/home/dundee/myFlaskApp/jahelp/flask/lib/python2.7/site-packages/sqlalchemy/engine/base'
p442
sg12
g13
(g14
g15
NtRp443
(dp444
g18
I1
sg19
I381
sg20
I1175
sg21
I0
sg22
I48
sg23
I926
sg24
I283
sbssg25
S'\xf8s\x80N\xdf\x89\xb5\xc0\x95\xb0\xe4\xd3T\xcc\xd4x'
p445
ssS'_home_dundee_myFlaskApp_jahelp_flask_lib_python2_7_site-packages_sqlalchemy_engine___init__'
p446
(dp447
g6
(dp448
g8
S'_home_dundee_myFlaskApp_jahelp_flask_lib_python2_7_site-packages_sqlalchemy_engine___init__.html'
p449
sg10
S'/home/dundee/myFlaskApp/jahelp/flask/lib/python2.7/site-packages/sqlalchemy/engine/__init__'
p450
sg12
g13
(g14
g15
NtRp451
(dp452
g18
I1
sg19
I4
sg20
I20
sg21
I0
sg22
I0
sg23
I17
sg24
I4
sbssg25
S'\xc9\xee\xc9\x8f\xb3\t\xe5.\xc9{*\xd3\xf9\xf7v|'
p453
ssS'_home_dundee_myFlaskApp_jahelp_flask_lib_python2_7_site-packages_sqlalchemy_sql_visitors'
p454
(dp455
g6
(dp456
g8
S'_home_dundee_myFlaskApp_jahelp_flask_lib_python2_7_site-packages_sqlalchemy_sql_visitors.html'
p457
sg10
S'/home/dundee/myFlaskApp/jahelp/flask/lib/python2.7/site-packages/sqlalchemy/sql/visitors'
p458
sg12
g13
(g14
g15
NtRp459
(dp460
g18
I1
sg19
I49
sg20
I126
sg21
I0
sg22
I9
sg23
I72
sg24
I23
sbssg25
S'{\x06\x95\x9d\x94\xeaPsS\xd6\x14\xb2w\x9fKZ'
p461
ssS'_home_dundee_myFlaskApp_jahelp_flask_lib_python2_7_site-packages_sqlalchemy_orm_identity'
p462
(dp463
g6
(dp464
g8
S'_home_dundee_myFlaskApp_jahelp_flask_lib_python2_7_site-packages_sqlalchemy_orm_identity.html'
p465
sg10
S'/home/dundee/myFlaskApp/jahelp/flask/lib/python2.7/site-packages/sqlalchemy/orm/identity'
p466
sg12
g13
(g14
g15
NtRp467
(dp468
g18
I1
sg19
I60
sg20
I173
sg21
I0
sg22
I7
sg23
I132
sg24
I43
sbssg25
S'\xd1\x9bw\xf6\x82\x802\xe9\x03\x8e\xf6\xde54\xca\xcc'
p469
ssS'_home_dundee_myFlaskApp_jahelp_flask_lib_python2_7_site-packages_sqlalchemy_orm_session'
p470
(dp471
g6
(dp472
g8
S'_home_dundee_myFlaskApp_jahelp_flask_lib_python2_7_site-packages_sqlalchemy_orm_session.html'
p473
sg10
S'/home/dundee/myFlaskApp/jahelp/flask/lib/python2.7/site-packages/sqlalchemy/orm/session'
p474
sg12
g13
(g14
g15
NtRp475
(dp476
g18
I1
sg19
I343
sg20
I682
sg21
I0
sg22
I57
sg23
I460
sg24
I233
sbssg25
S'\x95\xf23\xcbM\x94}\xfe\xe9\x16\xc9m\xea\xb9JH'
p477
ssS'_home_dundee_myFlaskApp_jahelp_flask_lib_python2_7_site-packages_flask_login'
p478
(dp479
g6
(dp480
g8
S'_home_dundee_myFlaskApp_jahelp_flask_lib_python2_7_site-packages_flask_login.html'
p481
sg10
S'/home/dundee/myFlaskApp/jahelp/flask/lib/python2.7/site-packages/flask_login'
p482
sg12
g13
(g14
g15
NtRp483
(dp484
g18
I1
sg19
I92
sg20
I304
sg21
I13
sg22
I25
sg23
I199
sg24
I57
sbssg25
S'A\xf5\xed\x11\x8e\xca\xfc\x01\xb5/\xd8\xdcH\x0c0\xcb'
p485
ssS'_home_dundee_myFlaskApp_jahelp_flask_lib_python2_7_site-packages_sqlalchemy_orm_instrumentation'
p486
(dp487
g6
(dp488
g8
S'_home_dundee_myFlaskApp_jahelp_flask_lib_python2_7_site-packages_sqlalchemy_orm_instrumentation.html'
p489
sg10
S'/home/dundee/myFlaskApp/jahelp/flask/lib/python2.7/site-packages/sqlalchemy/orm/instrumentation'
p490
sg12
g13
(g14
g15
NtRp491
(dp492
g18
I1
sg19
I93
sg20
I335
sg21
I0
sg22
I3
sg23
I323
sg24
I89
sbssg25
S"\x12\xbfr\xda'\xd8\x18\xab[\xa7\x94\xfb\x88\xa4\x0b\xaa"
p493
ssS'_home_dundee_myFlaskApp_jahelp_flask_lib_python2_7_site-packages_jinja2_loaders'
p494
(dp495
g6
(dp496
g8
S'_home_dundee_myFlaskApp_jahelp_flask_lib_python2_7_site-packages_jinja2_loaders.html'
p497
sg10
S'/home/dundee/myFlaskApp/jahelp/flask/lib/python2.7/site-packages/jinja2/loaders'
p498
sg12
g13
(g14
g15
NtRp499
(dp500
g18
I1
sg19
I70
sg20
I221
sg21
I0
sg22
I11
sg23
I189
sg24
I59
sbssg25
S'\x97\x19\x82;f"\x06\xa5\x13\xbaBW\x91\x16\x88\x1d'
p501
ssS'_home_dundee_myFlaskApp_jahelp_flask_lib_python2_7_site-packages_jinja2_visitor'
p502
(dp503
g6
(dp504
g8
S'_home_dundee_myFlaskApp_jahelp_flask_lib_python2_7_site-packages_jinja2_visitor.html'
p505
sg10
S'/home/dundee/myFlaskApp/jahelp/flask/lib/python2.7/site-packages/jinja2/visitor'
p506
sg12
g13
(g14
g15
NtRp507
(dp508
g18
I1
sg19
I22
sg20
I40
sg21
I0
sg22
I4
sg23
I17
sg24
I6
sbssg25
S'\xef\xa3\xef\x86V\x14\x17!\xcfd\x0by_\x14\xe1q'
p509
ssS'_home_dundee_myFlaskApp_jahelp_flask_lib_python2_7_site-packages_sqlalchemy_orm_mapper'
p510
(dp511
g6
(dp512
g8
S'_home_dundee_myFlaskApp_jahelp_flask_lib_python2_7_site-packages_sqlalchemy_orm_mapper.html'
p513
sg10
S'/home/dundee/myFlaskApp/jahelp/flask/lib/python2.7/site-packages/sqlalchemy/orm/mapper'
p514
sg12
g13
(g14
g15
NtRp515
(dp516
g18
I1
sg19
I602
sg20
I1023
sg21
I0
sg22
I45
sg23
I836
sg24
I503
sbssg25
S'>\x18\xc6\x86\x8d!\x0fU%\xf8\x0b\x183$p\xc9'
p517
ssS'_home_dundee_myFlaskApp_jahelp_flask_lib_python2_7_site-packages_markupsafe___init__'
p518
(dp519
g6
(dp520
g8
S'_home_dundee_myFlaskApp_jahelp_flask_lib_python2_7_site-packages_markupsafe___init__.html'
p521
sg10
S'/home/dundee/myFlaskApp/jahelp/flask/lib/python2.7/site-packages/markupsafe/__init__'
p522
sg12
g13
(g14
g15
NtRp523
(dp524
g18
I1
sg19
I46
sg20
I112
sg21
I0
sg22
I2
sg23
I108
sg24
I44
sbssg25
S'v\x93\xdb\xb1\xad\x0e\x07\xad5i\xa16\xc6\x83\xea\xf8'
p525
ssS'_home_dundee_myFlaskApp_jahelp_flask_lib_python2_7_site-packages_werkzeug_contrib_sessions'
p526
(dp527
g6
(dp528
g8
S'_home_dundee_myFlaskApp_jahelp_flask_lib_python2_7_site-packages_werkzeug_contrib_sessions.html'
p529
sg10
S'/home/dundee/myFlaskApp/jahelp/flask/lib/python2.7/site-packages/werkzeug/contrib/sessions'
p530
sg12
g13
(g14
g15
NtRp531
(dp532
g18
I1
sg19
I38
sg20
I157
sg21
I0
sg22
I0
sg23
I152
sg24
I38
sbssg25
S'\xeeM3\x83\xdf\xb4\xc2\x94t\xca\xda\xe2\xa6Y\xd4\x98'
p533
ssS'_home_dundee_myFlaskApp_jahelp_flask_lib_python2_7_site-packages_sqlalchemy_orm_dependency'
p534
(dp535
g6
(dp536
g8
S'_home_dundee_myFlaskApp_jahelp_flask_lib_python2_7_site-packages_sqlalchemy_orm_dependency.html'
p537
sg10
S'/home/dundee/myFlaskApp/jahelp/flask/lib/python2.7/site-packages/sqlalchemy/orm/dependency'
p538
sg12
g13
(g14
g15
NtRp539
(dp540
g18
I1
sg19
I348
sg20
I474
sg21
I0
sg22
I9
sg23
I446
sg24
I326
sbssg25
S",\xf5\xcdyPw\x86'\xe0\x0c\xf2\xd6\xa01j\xd6"
p541
ssS'app_forms'
p542
(dp543
g64
(dp544
g414
S'app_forms.html'
p545
sg416
S'app/forms'
p546
sg418
g13
(g14
g15
NtRp547
(dp548
g18
I1
sg19
I10
sg20
I110
sg21
I0
sg22
I4
sg23
I101
sg24
I6
sbssg70
S'\x04R\xc1k\xb38\x89\xaf6\xf4\xeb\xa6\xd6\x08\xcf\xc0'
p549
ssS'_home_dundee_myFlaskApp_jahelp_flask_lib_python2_7_site-packages_wtforms_form'
p550
(dp551
g6
(dp552
g8
S'_home_dundee_myFlaskApp_jahelp_flask_lib_python2_7_site-packages_wtforms_form.html'
p553
sg10
S'/home/dundee/myFlaskApp/jahelp/flask/lib/python2.7/site-packages/wtforms/form'
p554
sg12
g13
(g14
g15
NtRp555
(dp556
g18
I1
sg19
I60
sg20
I122
sg21
I0
sg22
I8
sg23
I68
sg24
I20
sbssg25
S'<\xaf`\xc5\xdbb\xc7\x9f\xcc\x83\x18\x8e\x8bK\x93\xdc'
p557
ssS'_home_dundee_myFlaskApp_jahelp_flask_lib_python2_7_site-packages_werkzeug_exceptions'
p558
(dp559
g6
(dp560
g8
S'_home_dundee_myFlaskApp_jahelp_flask_lib_python2_7_site-packages_werkzeug_exceptions.html'
p561
sg10
S'/home/dundee/myFlaskApp/jahelp/flask/lib/python2.7/site-packages/werkzeug/exceptions'
p562
sg12
g13
(g14
g15
NtRp563
(dp564
g18
I1
sg19
I22
sg20
I159
sg21
I2
sg22
I1
sg23
I154
sg24
I21
sbssg25
S'\xec\xc7]\x96y\xe2\x1b\xb3eP\x9cs\x82\xe5\x8c,'
p565
ssS'_home_dundee_myFlaskApp_jahelp_flask_lib_python2_7_site-packages_jinja2_compiler'
p566
(dp567
g6
(dp568
g8
S'_home_dundee_myFlaskApp_jahelp_flask_lib_python2_7_site-packages_jinja2_compiler.html'
p569
sg10
S'/home/dundee/myFlaskApp/jahelp/flask/lib/python2.7/site-packages/jinja2/compiler'
p570
sg12
g13
(g14
g15
NtRp571
(dp572
g18
I1
sg19
I429
sg20
I1030
sg21
I0
sg22
I81
sg23
I583
sg24
I241
sbssg25
S'\xdc\x8c\xe2i\xebPfI&\x93\xe4!\x93?G\xcb'
p573
ssS'_home_dundee_myFlaskApp_jahelp_flask_lib_python2_7_site-packages_sqlalchemy_util__collections'
p574
(dp575
g6
(dp576
g8
S'_home_dundee_myFlaskApp_jahelp_flask_lib_python2_7_site-packages_sqlalchemy_util__collections.html'
p577
sg10
S'/home/dundee/myFlaskApp/jahelp/flask/lib/python2.7/site-packages/sqlalchemy/util/_collections'
p578
sg12
g13
(g14
g15
NtRp579
(dp580
g18
I1
sg19
I146
sg20
I580
sg21
I4
sg22
I11
sg23
I504
sg24
I129
sbssg25
S'\xdf%\xeb\x9c\n\xef\xfa\xd1k\xffZ\x08TGX\xda'
p581
ssS'_home_dundee_myFlaskApp_jahelp_flask_lib_python2_7_site-packages_sqlalchemy_util_compat'
p582
(dp583
g6
(dp584
g8
S'_home_dundee_myFlaskApp_jahelp_flask_lib_python2_7_site-packages_sqlalchemy_util_compat.html'
p585
sg10
S'/home/dundee/myFlaskApp/jahelp/flask/lib/python2.7/site-packages/sqlalchemy/util/compat'
p586
sg12
g13
(g14
g15
NtRp587
(dp588
g18
I1
sg19
I41
sg20
I167
sg21
I0
sg22
I0
sg23
I161
sg24
I37
sbssg25
S"\x0b\x8aE\xf8\x164i\x8dy\xbc3p'T\xe8\xae"
p589
ssS'_home_dundee_myFlaskApp_jahelp_flask_lib_python2_7_site-packages_sqlalchemy_orm_util'
p590
(dp591
g6
(dp592
g46
S'_home_dundee_myFlaskApp_jahelp_flask_lib_python2_7_site-packages_sqlalchemy_orm_util.html'
p593
sg48
S'/home/dundee/myFlaskApp/jahelp/flask/lib/python2.7/site-packages/sqlalchemy/orm/util'
p594
sg50
g13
(g14
g15
NtRp595
(dp596
g18
I1
sg19
I134
sg20
I342
sg21
I0
sg22
I11
sg23
I315
sg24
I123
sbssg25
S'\x88\xa1S`\xee\xbc\x13\x18tC\x97\xe6\xd8=YG'
p597
ssS'_home_dundee_myFlaskApp_jahelp_flask_lib_python2_7_site-packages_sqlalchemy_orm_query'
p598
(dp599
g6
(dp600
g8
S'_home_dundee_myFlaskApp_jahelp_flask_lib_python2_7_site-packages_sqlalchemy_orm_query.html'
p601
sg10
S'/home/dundee/myFlaskApp/jahelp/flask/lib/python2.7/site-packages/sqlalchemy/orm/query'
p602
sg12
g13
(g14
g15
NtRp603
(dp604
g18
I1
sg19
I590
sg20
I1154
sg21
I0
sg22
I93
sg23
I890
sg24
I465
sbssg25
S'\xe1\xd6\xf0\x81)\x04_\x98\xf5\x07\xe4n\xa0u\xa8\xee'
p605
ssS'_home_dundee_myFlaskApp_jahelp_flask_lib_python2_7_site-packages_sqlalchemy_orm_persistence'
p606
(dp607
g6
(dp608
g8
S'_home_dundee_myFlaskApp_jahelp_flask_lib_python2_7_site-packages_sqlalchemy_orm_persistence.html'
p609
sg10
S'/home/dundee/myFlaskApp/jahelp/flask/lib/python2.7/site-packages/sqlalchemy/orm/persistence'
p610
sg12
g13
(g14
g15
NtRp611
(dp612
g18
I1
sg19
I197
sg20
I297
sg21
I0
sg22
I33
sg23
I155
sg24
I101
sbssg25
S'{8\xac\x1ag%\x1c\x94s\xe7I\xa4G\xd9o\x1c'
p613
ssS'_home_dundee_myFlaskApp_jahelp_flask_lib_python2_7_site-packages_jinja2_parser'
p614
(dp615
g6
(dp616
g8
S'_home_dundee_myFlaskApp_jahelp_flask_lib_python2_7_site-packages_jinja2_parser.html'
p617
sg10
S'/home/dundee/myFlaskApp/jahelp/flask/lib/python2.7/site-packages/jinja2/parser'
p618
sg12
g13
(g14
g15
NtRp619
(dp620
g18
I1
sg19
I283
sg20
I646
sg21
I0
sg22
I50
sg23
I341
sg24
I156
sbssg25
S'\xc6/\xed\xe2\x06z\xf0@\xef\x18\x8f\x13\x86b@\xe2'
p621
ssS'_home_dundee_myFlaskApp_jahelp_flask_lib_python2_7_site-packages_werkzeug_http'
p622
(dp623
g6
(dp624
g8
S'_home_dundee_myFlaskApp_jahelp_flask_lib_python2_7_site-packages_werkzeug_http.html'
p625
sg10
S'/home/dundee/myFlaskApp/jahelp/flask/lib/python2.7/site-packages/werkzeug/http'
p626
sg12
g13
(g14
g15
NtRp627
(dp628
g18
I1
sg19
I206
sg20
I373
sg21
I4
sg22
I14
sg23
I317
sg24
I174
sbssg25
S'\xab7\x8e\xcai\xab\x91V\xfcrn\x0e\x04c\x02\x06'
p629
ssS'_home_dundee_myFlaskApp_jahelp_flask_lib_python2_7_site-packages_flask_wrappers'
p630
(dp631
g6
(dp632
g8
S'_home_dundee_myFlaskApp_jahelp_flask_lib_python2_7_site-packages_flask_wrappers.html'
p633
sg10
S'/home/dundee/myFlaskApp/jahelp/flask/lib/python2.7/site-packages/flask/wrappers'
p634
sg12
g13
(g14
g15
NtRp635
(dp636
g18
I1
sg19
I15
sg20
I46
sg21
I0
sg22
I4
sg23
I37
sg24
I10
sbssg25
S"\x13k\xc3\xbe'\x93\xfbw}\xcd\x1f\xeeJL\x98~"
p637
ssS'_home_dundee_myFlaskApp_jahelp_flask_lib_python2_7_site-packages_sqlalchemy_engine_ddl'
p638
(dp639
g6
(dp640
g8
S'_home_dundee_myFlaskApp_jahelp_flask_lib_python2_7_site-packages_sqlalchemy_engine_ddl.html'
p641
sg10
S'/home/dundee/myFlaskApp/jahelp/flask/lib/python2.7/site-packages/sqlalchemy/engine/ddl'
p642
sg12
g13
(g14
g15
NtRp643
(dp644
g18
I1
sg19
I48
sg20
I93
sg21
I0
sg22
I9
sg23
I38
sg24
I21
sbssg25
S'\xa8\x11p\xbe\x9d<.\xa3\xe5C\x9bh\x96\x17[\xe1'
p645
ssS'_home_dundee_myFlaskApp_jahelp_flask_lib_python2_7_site-packages_sqlalchemy_schema'
p646
(dp647
g6
(dp648
g8
S'_home_dundee_myFlaskApp_jahelp_flask_lib_python2_7_site-packages_sqlalchemy_schema.html'
p649
sg10
S'/home/dundee/myFlaskApp/jahelp/flask/lib/python2.7/site-packages/sqlalchemy/schema'
p650
sg12
g13
(g14
g15
NtRp651
(dp652
g18
I1
sg19
I433
sg20
I1010
sg21
I0
sg22
I36
sg23
I936
sg24
I396
sbssg25
S'F\x89\xad\x1fx\xd6\xa1\xbdg\xf9 !\xcd\xcd\x92\xaa'
p653
ssS'_home_dundee_myFlaskApp_jahelp_flask_lib_python2_7_site-packages_flask_config'
p654
(dp655
g6
(dp656
g8
S'_home_dundee_myFlaskApp_jahelp_flask_lib_python2_7_site-packages_flask_config.html'
p657
sg10
S'/home/dundee/myFlaskApp/jahelp/flask/lib/python2.7/site-packages/flask/config'
p658
sg12
g13
(g14
g15
NtRp659
(dp660
g18
I1
sg19
I16
sg20
I51
sg21
I0
sg22
I2
sg23
I47
sg24
I14
sbssg25
S'\x87\x0f+J p_X\xa7W\x98\x91=&\xf3\x04'
p661
ssS'app_helperlist'
p662
(dp663
g64
(dp664
g8
S'app_helperlist.html'
p665
sg10
S'app/helperlist'
p666
sg12
g13
(g14
g15
NtRp667
(dp668
g18
I1
sg19
I4
sg20
I49
sg21
I0
sg22
I0
sg23
I48
sg24
I4
sbssg70
S'j\xb7\xa0{*\xd4\xd4\xb2DM\xd4n`[93'
p669
ssS'_home_dundee_myFlaskApp_jahelp_flask_lib_python2_7_site-packages_jinja2_optimizer'
p670
(dp671
g6
(dp672
g8
S'_home_dundee_myFlaskApp_jahelp_flask_lib_python2_7_site-packages_jinja2_optimizer.html'
p673
sg10
S'/home/dundee/myFlaskApp/jahelp/flask/lib/python2.7/site-packages/jinja2/optimizer'
p674
sg12
g13
(g14
g15
NtRp675
(dp676
g18
I1
sg19
I6
sg20
I31
sg21
I0
sg22
I1
sg23
I18
sg24
I5
sbssg25
S'\xee\x96\xd5\x16\xb2\x00\x02\xa6\xacA9\x1f\x00\xad\x0c\xe2'
p677
ssS'_home_dundee_myFlaskApp_jahelp_flask_lib_python2_7_site-packages_werkzeug_security'
p678
(dp679
g6
(dp680
g8
S'_home_dundee_myFlaskApp_jahelp_flask_lib_python2_7_site-packages_werkzeug_security.html'
p681
sg10
S'/home/dundee/myFlaskApp/jahelp/flask/lib/python2.7/site-packages/werkzeug/security'
p682
sg12
g13
(g14
g15
NtRp683
(dp684
g18
I1
sg19
I58
sg20
I115
sg21
I0
sg22
I14
sg23
I64
sg24
I34
sbssg25
S'\xf1\xe8t\x1c;\xba\x9eq16^\x92x\x90\x0b\xd5'
p685
ssS'_home_dundee_myFlaskApp_jahelp_flask_lib_python2_7_site-packages_sqlalchemy_ext_declarative'
p686
(dp687
g6
(dp688
g8
S'_home_dundee_myFlaskApp_jahelp_flask_lib_python2_7_site-packages_sqlalchemy_ext_declarative.html'
p689
sg10
S'/home/dundee/myFlaskApp/jahelp/flask/lib/python2.7/site-packages/sqlalchemy/ext/declarative'
p690
sg12
g13
(g14
g15
NtRp691
(dp692
g18
I1
sg19
I227
sg20
I312
sg21
I0
sg22
I1
sg23
I308
sg24
I224
sbssg25
S'\xc9n\x12\x7f\x0bW\x17\x96\xc44k\r\xf2,\xdbA'
p693
ssS'_home_dundee_myFlaskApp_jahelp_flask_lib_python2_7_site-packages_sqlalchemy_orm_unitofwork'
p694
(dp695
g6
(dp696
g8
S'_home_dundee_myFlaskApp_jahelp_flask_lib_python2_7_site-packages_sqlalchemy_orm_unitofwork.html'
p697
sg10
S'/home/dundee/myFlaskApp/jahelp/flask/lib/python2.7/site-packages/sqlalchemy/orm/unitofwork'
p698
sg12
g13
(g14
g15
NtRp699
(dp700
g18
I1
sg19
I144
sg20
I297
sg21
I0
sg22
I17
sg23
I206
sg24
I90
sbssg25
S'8\xaf5\xac\xc7\x160i\x7f\xca\x1f\xf6\xaeq\x13\xaf'
p701
ssS'_home_dundee_myFlaskApp_jahelp_flask_lib_python2_7_site-packages_sqlalchemy_log'
p702
(dp703
g6
(dp704
g8
S'_home_dundee_myFlaskApp_jahelp_flask_lib_python2_7_site-packages_sqlalchemy_log.html'
p705
sg10
S'/home/dundee/myFlaskApp/jahelp/flask/lib/python2.7/site-packages/sqlalchemy/log'
p706
sg12
g13
(g14
g15
NtRp707
(dp708
g18
I1
sg19
I29
sg20
I83
sg21
I0
sg22
I2
sg23
I74
sg24
I27
sbssg25
S'\xeb7{\xba\xb2\xfe\xcb\x8d\xc8`\xf3J\xf7\xb5Q\xe7'
p709
ssS'_home_dundee_myFlaskApp_jahelp_flask_lib_python2_7_site-packages_sqlalchemy_engine_default'
p710
(dp711
g6
(dp712
g8
S'_home_dundee_myFlaskApp_jahelp_flask_lib_python2_7_site-packages_sqlalchemy_engine_default.html'
p713
sg10
S'/home/dundee/myFlaskApp/jahelp/flask/lib/python2.7/site-packages/sqlalchemy/engine/default'
p714
sg12
g13
(g14
g15
NtRp715
(dp716
g18
I1
sg19
I159
sg20
I425
sg21
I0
sg22
I32
sg23
I266
sg24
I106
sbssg25
S'\xcb\xb7J\x1c\x17\xe3\x15\xe1\xd4`=b\xf9\xad\xf3\xc3'
p717
ssS'_home_dundee_myFlaskApp_jahelp_flask_lib_python2_7_site-packages_werkzeug_utils'
p718
(dp719
g6
(dp720
g8
S'_home_dundee_myFlaskApp_jahelp_flask_lib_python2_7_site-packages_werkzeug_utils.html'
p721
sg10
S'/home/dundee/myFlaskApp/jahelp/flask/lib/python2.7/site-packages/werkzeug/utils'
p722
sg12
g13
(g14
g15
NtRp723
(dp724
g18
I1
sg19
I104
sg20
I240
sg21
I0
sg22
I9
sg23
I218
sg24
I94
sbssg25
S'\x02\xa6\x90\xed\xed\xf9\xc0\x95\xff\x8f\xde\x86Y\x83\xf3\x18'
p725
ssS'_home_dundee_myFlaskApp_jahelp_flask_lib_python2_7_site-packages_sqlalchemy_orm_strategies'
p726
(dp727
g6
(dp728
g8
S'_home_dundee_myFlaskApp_jahelp_flask_lib_python2_7_site-packages_sqlalchemy_orm_strategies.html'
p729
sg10
S'/home/dundee/myFlaskApp/jahelp/flask/lib/python2.7/site-packages/sqlalchemy/orm/strategies'
p730
sg12
g13
(g14
g15
NtRp731
(dp732
g18
I1
sg19
I324
sg20
I652
sg21
I0
sg22
I28
sg23
I564
sg24
I277
sbssg25
S'w\xd8s\xf5\x84\x0f\xfe\x05\xa6\xbf\xa3\xcf\x7f\x95x\xd3'
p733
ssS'_home_dundee_myFlaskApp_jahelp_flask_lib_python2_7_site-packages_wtforms_validators'
p734
(dp735
g6
(dp736
g414
S'_home_dundee_myFlaskApp_jahelp_flask_lib_python2_7_site-packages_wtforms_validators.html'
p737
sg416
S'/home/dundee/myFlaskApp/jahelp/flask/lib/python2.7/site-packages/wtforms/validators'
p738
sg418
g13
(g14
g15
NtRp739
(dp740
g18
I1
sg19
I96
sg20
I225
sg21
I0
sg22
I5
sg23
I209
sg24
I89
sbssg25
S'\x7f\x87\xfefe\x93b\xa8\x10~o\x9dN\xa9J\xc6'
p741
ssS'_home_dundee_myFlaskApp_jahelp_flask_lib_python2_7_site-packages_wtforms_fields_core'
p742
(dp743
g6
(dp744
g414
S'_home_dundee_myFlaskApp_jahelp_flask_lib_python2_7_site-packages_wtforms_fields_core.html'
p745
sg416
S'/home/dundee/myFlaskApp/jahelp/flask/lib/python2.7/site-packages/wtforms/fields/core'
p746
sg418
g13
(g14
g15
NtRp747
(dp748
g18
I1
sg19
I140
sg20
I484
sg21
I0
sg22
I11
sg23
I395
sg24
I111
sbssg25
S'\xfeP\xe2-\xe7\x9a2\xf4\xa4\xaa\x0ed\n\xe6J\x00'
p749
ssS'_home_dundee_myFlaskApp_jahelp_flask_lib_python2_7_site-packages_werkzeug_formparser'
p750
(dp751
g6
(dp752
g8
S'_home_dundee_myFlaskApp_jahelp_flask_lib_python2_7_site-packages_werkzeug_formparser.html'
p753
sg10
S'/home/dundee/myFlaskApp/jahelp/flask/lib/python2.7/site-packages/werkzeug/formparser'
p754
sg12
g13
(g14
g15
NtRp755
(dp756
g18
I1
sg19
I107
sg20
I244
sg21
I4
sg22
I7
sg23
I220
sg24
I96
sbssg25
S'\xdd.\x04IK\x83\xce\xfe\x0f6\xa6]j\xf5\xec\x16'
p757
ssS'_home_dundee_myFlaskApp_jahelp_flask_lib_python2_7_site-packages_sqlalchemy_sql_util'
p758
(dp759
g6
(dp760
g8
S'_home_dundee_myFlaskApp_jahelp_flask_lib_python2_7_site-packages_sqlalchemy_sql_util.html'
p761
sg10
S'/home/dundee/myFlaskApp/jahelp/flask/lib/python2.7/site-packages/sqlalchemy/sql/util'
p762
sg12
g13
(g14
g15
NtRp763
(dp764
g18
I1
sg19
I225
sg20
I404
sg21
I0
sg22
I5
sg23
I379
sg24
I214
sbssg25
S't\x8b\x07=\x1e\xa3\xcd\xfb\x12\x08\x87\xfdo\xb6\x9c\xf3'
p765
ssS'_home_dundee_myFlaskApp_jahelp_flask_lib_python2_7_site-packages_sqlalchemy_interfaces'
p766
(dp767
g6
(dp768
g8
S'_home_dundee_myFlaskApp_jahelp_flask_lib_python2_7_site-packages_sqlalchemy_interfaces.html'
p769
sg10
S'/home/dundee/myFlaskApp/jahelp/flask/lib/python2.7/site-packages/sqlalchemy/interfaces'
p770
sg12
g13
(g14
g15
NtRp771
(dp772
g18
I1
sg19
I16
sg20
I69
sg21
I0
sg22
I0
sg23
I40
sg24
I16
sbssg25
S'\x18\xc7\x148\xfb[\x06\x06L\xad\xa3\x8a\xad\xbd1\x80'
p773
ssS'_home_dundee_myFlaskApp_jahelp_flask_lib_python2_7_site-packages_wtforms_widgets_core'
p774
(dp775
g6
(dp776
g8
S'_home_dundee_myFlaskApp_jahelp_flask_lib_python2_7_site-packages_wtforms_widgets_core.html'
p777
sg10
S'/home/dundee/myFlaskApp/jahelp/flask/lib/python2.7/site-packages/wtforms/widgets/core'
p778
sg12
g13
(g14
g15
NtRp779
(dp780
g18
I1
sg19
I36
sg20
I117
sg21
I0
sg22
I6
sg23
I88
sg24
I24
sbssg25
S'j]\xfc\xdf\xafQ\x8cAVEmQc3\xd8\x15'
p781
ssS'_home_dundee_myFlaskApp_jahelp_flask_lib_python2_7_site-packages_jinja2_environment'
p782
(dp783
g6
(dp784
g8
S'_home_dundee_myFlaskApp_jahelp_flask_lib_python2_7_site-packages_jinja2_environment.html'
p785
sg10
S'/home/dundee/myFlaskApp/jahelp/flask/lib/python2.7/site-packages/jinja2/environment'
p786
sg12
g13
(g14
g15
NtRp787
(dp788
g18
I1
sg19
I177
sg20
I488
sg21
I0
sg22
I12
sg23
I415
sg24
I153
sbssg25
S"f\x0e\xad([\xa6o\x86\xf2\x13\x82'\x11F\xde\xe2"
p789
ssS'_home_dundee_myFlaskApp_jahelp_flask_lib_python2_7_site-packages_sqlalchemy_pool'
p790
(dp791
g6
(dp792
g8
S'_home_dundee_myFlaskApp_jahelp_flask_lib_python2_7_site-packages_sqlalchemy_pool.html'
p793
sg10
S'/home/dundee/myFlaskApp/jahelp/flask/lib/python2.7/site-packages/sqlalchemy/pool'
p794
sg12
g13
(g14
g15
NtRp795
(dp796
g18
I1
sg19
I126
sg20
I459
sg21
I0
sg22
I23
sg23
I388
sg24
I99
sbssg25
S'\xca\x98L\xb7l\n\xf7\xff\xa1k-\x8f\x06\\u\x87'
p797
ssS'_home_dundee_myFlaskApp_jahelp_flask_lib_python2_7_site-packages_sqlalchemy_orm_deprecated_interfaces'
p798
(dp799
g6
(dp800
g8
S'_home_dundee_myFlaskApp_jahelp_flask_lib_python2_7_site-packages_sqlalchemy_orm_deprecated_interfaces.html'
p801
sg10
S'/home/dundee/myFlaskApp/jahelp/flask/lib/python2.7/site-packages/sqlalchemy/orm/deprecated_interfaces'
p802
sg12
g13
(g14
g15
NtRp803
(dp804
g18
I1
sg19
I34
sg20
I88
sg21
I0
sg22
I0
sg23
I83
sg24
I30
sbssg25
S"\xb3\xf5\xc8'l\xaf\xb5\x03\x14\xa5\xaa\xbe\x10\x15\xdf\x7f"
p805
ssS'_home_dundee_myFlaskApp_jahelp_flask_lib_python2_7_site-packages_jinja2_utils'
p806
(dp807
g6
(dp808
g8
S'_home_dundee_myFlaskApp_jahelp_flask_lib_python2_7_site-packages_jinja2_utils.html'
p809
sg10
S'/home/dundee/myFlaskApp/jahelp/flask/lib/python2.7/site-packages/jinja2/utils'
p810
sg12
g13
(g14
g15
NtRp811
(dp812
g18
I1
sg19
I82
sg20
I263
sg21
I0
sg22
I2
sg23
I241
sg24
I76
sbssg25
S'\x1d\n-\x99\xe7\x9f\xff\x88?\x9e\x92Q\x1f;\x8a\xcb'
p813
ssS'_home_dundee_myFlaskApp_jahelp_flask_lib_python2_7_site-packages_werkzeug__compat'
p814
(dp815
g6
(dp816
g8
S'_home_dundee_myFlaskApp_jahelp_flask_lib_python2_7_site-packages_werkzeug__compat.html'
p817
sg10
S'/home/dundee/myFlaskApp/jahelp/flask/lib/python2.7/site-packages/werkzeug/_compat'
p818
sg12
g13
(g14
g15
NtRp819
(dp820
g18
I1
sg19
I75
sg20
I146
sg21
I0
sg22
I8
sg23
I119
sg24
I52
sbssg25
S'\x82\\\xc2\xab\x8c\xe0M\xca\x00YFD\x0b\x91\xa7`'
p821
ssS'_home_dundee_myFlaskApp_jahelp_flask_lib_python2_7_site-packages_wtforms_ext_csrf_fields'
p822
(dp823
g6
(dp824
g8
S'_home_dundee_myFlaskApp_jahelp_flask_lib_python2_7_site-packages_wtforms_ext_csrf_fields.html'
p825
sg10
S'/home/dundee/myFlaskApp/jahelp/flask/lib/python2.7/site-packages/wtforms/ext/csrf/fields'
p826
sg12
g13
(g14
g15
NtRp827
(dp828
g18
I1
sg19
I0
sg20
I7
sg21
I0
sg22
I0
sg23
I6
sg24
I0
sbssg25
S'\xe0\xd4%\xc4S\x90x\x91\x86\x06$B\x03\x0e@+'
p829
ssS'_home_dundee_myFlaskApp_jahelp_flask_lib_python2_7_site-packages_werkzeug__internal'
p830
(dp831
g6
(dp832
g8
S'_home_dundee_myFlaskApp_jahelp_flask_lib_python2_7_site-packages_werkzeug__internal.html'
p833
sg10
S'/home/dundee/myFlaskApp/jahelp/flask/lib/python2.7/site-packages/werkzeug/_internal'
p834
sg12
g13
(g14
g15
NtRp835
(dp836
g18
I1
sg19
I84
sg20
I235
sg21
I0
sg22
I10
sg23
I174
sg24
I60
sbssg25
S'\x1a/^\xa6\xbf\xf1\x19\xd0\xaf:\x0b\xad\x99\xd7\xe3p'
p837
ssS'_home_dundee_myFlaskApp_jahelp_flask_lib_python2_7_site-packages_jinja2_runtime'
p838
(dp839
g6
(dp840
g8
S'_home_dundee_myFlaskApp_jahelp_flask_lib_python2_7_site-packages_jinja2_runtime.html'
p841
sg10
S'/home/dundee/myFlaskApp/jahelp/flask/lib/python2.7/site-packages/jinja2/runtime'
p842
sg12
g13
(g14
g15
NtRp843
(dp844
g18
I1
sg19
I106
sg20
I291
sg21
I0
sg22
I8
sg23
I232
sg24
I80
sbssg25
S'\x1a\xc4\xca\xce?"\xc2#\xef\xfd\xa7\x81\x10\x19e\xb2'
p845
ssS'_home_dundee_myFlaskApp_jahelp_flask_lib_python2_7_site-packages_blinker_base'
p846
(dp847
g6
(dp848
g8
S'_home_dundee_myFlaskApp_jahelp_flask_lib_python2_7_site-packages_blinker_base.html'
p849
sg10
S'/home/dundee/myFlaskApp/jahelp/flask/lib/python2.7/site-packages/blinker/base'
p850
sg12
g13
(g14
g15
NtRp851
(dp852
g18
I1
sg19
I50
sg20
I154
sg21
I0
sg22
I3
sg23
I149
sg24
I47
sbssg25
S'}\xafC\xd3R@\xb4\xdcL\x01\xc9\xf1k\x9f\xc10'
p853
sssS'version'
p854
S'3.7'
p855
sS'settings'
p856
S'\xb2\x9c\x8f\xa5Q\xda\x9c!\xf2_|\x7fF\xb85\xe3'
p857
sS'format'
p858
I1
s.