(dp1
S'files'
p2
(dp3
S'_home_dundee_myFlaskApp_jahelp_flask_lib_python2_7_site-packages_sqlalchemy_engine_url'
p4
(dp5
S'index'
p6
(dp7
S'html_filename'
p8
S'_home_dundee_myFlaskApp_jahelp_flask_lib_python2_7_site-packages_sqlalchemy_engine_url.html'
p9
sS'name'
p10
S'/home/dundee/myFlaskApp/jahelp/flask/lib/python2.7/site-packages/sqlalchemy/engine/url'
p11
sS'nums'
p12
ccopy_reg
_reconstructor
p13
(ccoverage.results
Numbers
p14
c__builtin__
object
p15
NtRp16
(dp17
S'n_files'
p18
I1
sS'n_branches'
p19
I57
sS'n_statements'
p20
I104
sS'n_excluded'
p21
I0
sS'n_partial_branches'
p22
I7
sS'n_missing'
p23
I72
sS'n_missing_branches'
p24
I48
sbssS'hash'
p25
S'\x17\xbf\xadof\xbc\x05\xcd\xe7\xa1\xa6|\x02-\x85\x87'
p26
ssS'_home_dundee_myFlaskApp_jahelp_flask_lib_python2_7_site-packages_sqlalchemy_events'
p27
(dp28
g6
(dp29
g8
S'_home_dundee_myFlaskApp_jahelp_flask_lib_python2_7_site-packages_sqlalchemy_events.html'
p30
sg10
S'/home/dundee/myFlaskApp/jahelp/flask/lib/python2.7/site-packages/sqlalchemy/events'
p31
sg12
g13
(g14
g15
NtRp32
(dp33
g18
I1
sg19
I68
sg20
I69
sg21
I0
sg22
I3
sg23
I51
sg24
I61
sbssg25
S'd\xbd\x19\x12\xb2\x9d\x13\xbcY\xf12@\xcf\x9a\x01\x84'
p34
ssS'_home_dundee_myFlaskApp_jahelp_flask_lib_python2_7_site-packages_sqlalchemy_types'
p35
(dp36
g6
(dp37
g8
S'_home_dundee_myFlaskApp_jahelp_flask_lib_python2_7_site-packages_sqlalchemy_types.html'
p38
sg10
S'/home/dundee/myFlaskApp/jahelp/flask/lib/python2.7/site-packages/sqlalchemy/types'
p39
sg12
g13
(g14
g15
NtRp40
(dp41
g18
I1
sg19
I186
sg20
I669
sg21
I0
sg22
I12
sg23
I599
sg24
I157
sbssg25
S'wDR\x17\xef\x8a\xea\xb3Vo)\xee\x9aP\x9d\xe2'
p42
ssS'_home_dundee_myFlaskApp_jahelp_flask_lib_python2_7_site-packages_sqlalchemy_sql_expression'
p43
(dp44
g6
(dp45
g8
S'_home_dundee_myFlaskApp_jahelp_flask_lib_python2_7_site-packages_sqlalchemy_sql_expression.html'
p46
sg10
S'/home/dundee/myFlaskApp/jahelp/flask/lib/python2.7/site-packages/sqlalchemy/sql/expression'
p47
sg12
g13
(g14
g15
NtRp48
(dp49
g18
I1
sg19
I608
sg20
I1824
sg21
I0
sg22
I50
sg23
I1593
sg24
I511
sbssg25
S'N{\x82=\xe6\xe6\x99\xdb(\xa6\x18\xe3\x94\x93R\xf3'
p50
ssS'_home_dundee_myFlaskApp_jahelp_flask_lib_python2_7_site-packages_sqlalchemy_orm_state'
p51
(dp52
g6
(dp53
g8
S'_home_dundee_myFlaskApp_jahelp_flask_lib_python2_7_site-packages_sqlalchemy_orm_state.html'
p54
sg10
S'/home/dundee/myFlaskApp/jahelp/flask/lib/python2.7/site-packages/sqlalchemy/orm/state'
p55
sg12
g13
(g14
g15
NtRp56
(dp57
g18
I1
sg19
I97
sg20
I267
sg21
I0
sg22
I8
sg23
I202
sg24
I72
sbssg25
S'\xfb\x81\xbddph\xe4#0=\n\xec\xc23\xd6s'
p58
ssS'app_views'
p59
(dp60
S'index'
p61
(dp62
g8
S'app_views.html'
p63
sg10
S'app/views'
p64
sg12
g13
(g14
g15
NtRp65
(dp66
g18
I1
sg19
I190
sg20
I689
sg21
I0
sg22
I7
sg23
I591
sg24
I159
sbssS'hash'
p67
S'b\xdeN\xb5\x97\xc0\\\x9aw\xd2w<W\x1b\x87\xb0'
p68
ssS'_home_dundee_myFlaskApp_jahelp_flask_lib_python2_7_site-packages_sqlalchemy_orm_dynamic'
p69
(dp70
g6
(dp71
g8
S'_home_dundee_myFlaskApp_jahelp_flask_lib_python2_7_site-packages_sqlalchemy_orm_dynamic.html'
p72
sg10
S'/home/dundee/myFlaskApp/jahelp/flask/lib/python2.7/site-packages/sqlalchemy/orm/dynamic'
p73
sg12
g13
(g14
g15
NtRp74
(dp75
g18
I1
sg19
I57
sg20
I176
sg21
I0
sg22
I11
sg23
I140
sg24
I45
sbssg25
S'\xe5^\\\xa50\xe6\x1fC,{\xf5\xff\x93@\x9a\xa7'
p76
ssS'_home_dundee_myFlaskApp_jahelp_flask_lib_python2_7_site-packages_werkzeug_datastructures'
p77
(dp78
g6
(dp79
g8
S'_home_dundee_myFlaskApp_jahelp_flask_lib_python2_7_site-packages_werkzeug_datastructures.html'
p80
sg10
S'/home/dundee/myFlaskApp/jahelp/flask/lib/python2.7/site-packages/werkzeug/datastructures'
p81
sg12
g13
(g14
g15
NtRp82
(dp83
g18
I1
sg19
I515
sg20
I1276
sg21
I0
sg22
I27
sg23
I1160
sg24
I458
sbssg25
S'k=p$\xea4\xa0\xf3yj\xfdcn\xb8\x17\xd6'
p84
ssS'_home_dundee_myFlaskApp_jahelp_flask_lib_python2_7_site-packages_sqlalchemy_processors'
p85
(dp86
g6
(dp87
g8
S'_home_dundee_myFlaskApp_jahelp_flask_lib_python2_7_site-packages_sqlalchemy_processors.html'
p88
sg10
S'/home/dundee/myFlaskApp/jahelp/flask/lib/python2.7/site-packages/sqlalchemy/processors'
p89
sg12
g13
(g14
g15
NtRp90
(dp91
g18
I1
sg19
I18
sg20
I65
sg21
I0
sg22
I2
sg23
I54
sg24
I14
sbssg25
S'\xdf\x86\x06\x0c_\xd0Y\x14\xe6^h&K\x1a\xf5\xb8'
p92
ssS'_home_dundee_myFlaskApp_jahelp_flask_lib_python2_7_site-packages_sqlalchemy_util_langhelpers'
p93
(dp94
g6
(dp95
g8
S'_home_dundee_myFlaskApp_jahelp_flask_lib_python2_7_site-packages_sqlalchemy_util_langhelpers.html'
p96
sg10
S'/home/dundee/myFlaskApp/jahelp/flask/lib/python2.7/site-packages/sqlalchemy/util/langhelpers'
p97
sg12
g13
(g14
g15
NtRp98
(dp99
g18
I1
sg19
I199
sg20
I448
sg21
I0
sg22
I17
sg23
I350
sg24
I162
sbssg25
S'V\x82\xf7Ia=\x96\xe0\x82\x07\xe8\xda\xf4\x0f\xec{'
p100
ssS'_home_dundee_myFlaskApp_jahelp_flask_lib_python2_7_site-packages_sqlalchemy_orm_scoping'
p101
(dp102
g6
(dp103
g8
S'_home_dundee_myFlaskApp_jahelp_flask_lib_python2_7_site-packages_sqlalchemy_orm_scoping.html'
p104
sg10
S'/home/dundee/myFlaskApp/jahelp/flask/lib/python2.7/site-packages/sqlalchemy/orm/scoping'
p105
sg12
g13
(g14
g15
NtRp106
(dp107
g18
I1
sg19
I22
sg20
I63
sg21
I0
sg22
I1
sg23
I57
sg24
I19
sbssg25
S'\xa5\xe5]m\xbf\x04\x13j\xec"*\x0e\xb0\r\xc2X'
p108
ssS'_home_dundee_myFlaskApp_jahelp_flask_lib_python2_7_site-packages_sqlalchemy_orm_sync'
p109
(dp110
g6
(dp111
g8
S'_home_dundee_myFlaskApp_jahelp_flask_lib_python2_7_site-packages_sqlalchemy_orm_sync.html'
p112
sg10
S'/home/dundee/myFlaskApp/jahelp/flask/lib/python2.7/site-packages/sqlalchemy/orm/sync'
p113
sg12
g13
(g14
g15
NtRp114
(dp115
g18
I1
sg19
I18
sg20
I55
sg21
I0
sg22
I1
sg23
I50
sg24
I17
sbssg25
S'C\x03\xe4;d\x98\xc5d\x8a\xd1\xe4\xc1\x12F\xa0\x97'
p116
ssS'_home_dundee_myFlaskApp_jahelp_flask_lib_python2_7_site-packages_flask_helpers'
p117
(dp118
g6
(dp119
g8
S'_home_dundee_myFlaskApp_jahelp_flask_lib_python2_7_site-packages_flask_helpers.html'
p120
sg10
S'/home/dundee/myFlaskApp/jahelp/flask/lib/python2.7/site-packages/flask/helpers'
p121
sg12
g13
(g14
g15
NtRp122
(dp123
g18
I1
sg19
I129
sg20
I289
sg21
I0
sg22
I12
sg23
I253
sg24
I117
sbssg25
S'\xc1B\x13\xf8\xcd+\xd9\r\xe5"\x10v\x15\x9f}r'
p124
ssS'_home_dundee_myFlaskApp_jahelp_flask_lib_python2_7_site-packages_werkzeug_wrappers'
p125
(dp126
g6
(dp127
g8
S'_home_dundee_myFlaskApp_jahelp_flask_lib_python2_7_site-packages_werkzeug_wrappers.html'
p128
sg10
S'/home/dundee/myFlaskApp/jahelp/flask/lib/python2.7/site-packages/werkzeug/wrappers'
p129
sg12
g13
(g14
g15
NtRp130
(dp131
g18
I1
sg19
I185
sg20
I567
sg21
I0
sg22
I31
sg23
I427
sg24
I127
sbssg25
S'\x86\xe4zr\xd9\x03\x89s\xab1\xd31!\x029\xe1'
p132
ssS'_home_dundee_myFlaskApp_jahelp_flask_lib_python2_7_site-packages_werkzeug_test'
p133
(dp134
g6
(dp135
g8
S'_home_dundee_myFlaskApp_jahelp_flask_lib_python2_7_site-packages_werkzeug_test.html'
p136
sg10
S'/home/dundee/myFlaskApp/jahelp/flask/lib/python2.7/site-packages/werkzeug/test'
p137
sg12
g13
(g14
g15
NtRp138
(dp139
g18
I1
sg19
I176
sg20
I457
sg21
I0
sg22
I42
sg23
I177
sg24
I104
sbssg25
S'\xdc\xc2\xdf\xe7\xe7\xef\x053\xb3\xd0\xc5\xff\x95:\x97f'
p140
ssS'_home_dundee_myFlaskApp_jahelp_flask_lib_python2_7_site-packages_jinja2_nodes'
p141
(dp142
g6
(dp143
g8
S'_home_dundee_myFlaskApp_jahelp_flask_lib_python2_7_site-packages_jinja2_nodes.html'
p144
sg10
S'/home/dundee/myFlaskApp/jahelp/flask/lib/python2.7/site-packages/jinja2/nodes'
p145
sg12
g13
(g14
g15
NtRp146
(dp147
g18
I1
sg19
I135
sg20
I423
sg21
I0
sg22
I16
sg23
I334
sg24
I81
sbssg25
S'\x13\xb0+\xf3\xd8\xf7\xae8\xf6\x80\xca\x94\x05\x18r='
p148
ssS'_home_dundee_myFlaskApp_jahelp_flask_lib_python2_7_site-packages_sqlalchemy_orm_properties'
p149
(dp150
g6
(dp151
g8
S'_home_dundee_myFlaskApp_jahelp_flask_lib_python2_7_site-packages_sqlalchemy_orm_properties.html'
p152
sg10
S'/home/dundee/myFlaskApp/jahelp/flask/lib/python2.7/site-packages/sqlalchemy/orm/properties'
p153
sg12
g13
(g14
g15
NtRp154
(dp155
g18
I1
sg19
I352
sg20
I572
sg21
I0
sg22
I8
sg23
I554
sg24
I342
sbssg25
S'\x88\x96\x7fG\xf71\xfb@l_v\xee\xb8\x7f\xbc6'
p156
ssS'_home_dundee_myFlaskApp_jahelp_flask_lib_python2_7_site-packages_sqlalchemy_util_topological'
p157
(dp158
g6
(dp159
g8
S'_home_dundee_myFlaskApp_jahelp_flask_lib_python2_7_site-packages_sqlalchemy_util_topological.html'
p160
sg10
S'/home/dundee/myFlaskApp/jahelp/flask/lib/python2.7/site-packages/sqlalchemy/util/topological'
p161
sg12
g13
(g14
g15
NtRp162
(dp163
g18
I1
sg19
I26
sg20
I46
sg21
I0
sg22
I3
sg23
I16
sg24
I3
sbssg25
S'\xf7N\x89\x87K\xa2\x9b\xb2?"$\xed#\xa5c\xc1'
p164
ssS'_home_dundee_myFlaskApp_jahelp_flask_lib_python2_7_site-packages_sqlalchemy_event'
p165
(dp166
g6
(dp167
g8
S'_home_dundee_myFlaskApp_jahelp_flask_lib_python2_7_site-packages_sqlalchemy_event.html'
p168
sg10
S'/home/dundee/myFlaskApp/jahelp/flask/lib/python2.7/site-packages/sqlalchemy/event'
p169
sg12
g13
(g14
g15
NtRp170
(dp171
g18
I1
sg19
I79
sg20
I209
sg21
I0
sg22
I15
sg23
I160
sg24
I57
sbssg25
S'\x99\xa4.\x9a\xaa\xa7H6;\xb4\xe9\x94+\xba\x1a4'
p172
ssS'app_momentjs'
p173
(dp174
g61
(dp175
S'html_filename'
p176
S'app_momentjs.html'
p177
sS'name'
p178
S'app/momentjs'
p179
sS'nums'
p180
g13
(g14
g15
NtRp181
(dp182
g18
I1
sg19
I0
sg20
I12
sg21
I0
sg22
I0
sg23
I9
sg24
I0
sbssg67
S'P\xd7\xed\xe4\x00\x02jZ\x13.&h\xcc\xcf\xa4\xcb'
p183
ssS'_home_dundee_myFlaskApp_jahelp_flask_lib_python2_7_site-packages_werkzeug_urls'
p184
(dp185
g6
(dp186
g8
S'_home_dundee_myFlaskApp_jahelp_flask_lib_python2_7_site-packages_werkzeug_urls.html'
p187
sg10
S'/home/dundee/myFlaskApp/jahelp/flask/lib/python2.7/site-packages/werkzeug/urls'
p188
sg12
g13
(g14
g15
NtRp189
(dp190
g18
I1
sg19
I183
sg20
I371
sg21
I0
sg22
I43
sg23
I189
sg24
I94
sbssg25
S'\x95\xb6\x85h\x81\x11l\x98AMPxqE&\x04'
p191
ssS'_home_dundee_myFlaskApp_jahelp_flask_lib_python2_7_site-packages_jinja2__compat'
p192
(dp193
g6
(dp194
g8
S'_home_dundee_myFlaskApp_jahelp_flask_lib_python2_7_site-packages_jinja2__compat.html'
p195
sg10
S'/home/dundee/myFlaskApp/jahelp/flask/lib/python2.7/site-packages/jinja2/_compat'
p196
sg12
g13
(g14
g15
NtRp197
(dp198
g18
I1
sg19
I30
sg20
I98
sg21
I0
sg22
I2
sg23
I95
sg24
I28
sbssg25
S'\x8d\xce\x10=\xfe\x1fp\xc93\xedi+\xe7\xf6\x7f\x9b'
p199
ssS'_home_dundee_myFlaskApp_jahelp_flask_lib_python2_7_site-packages_sqlalchemy_orm_events'
p200
(dp201
g6
(dp202
g8
S'_home_dundee_myFlaskApp_jahelp_flask_lib_python2_7_site-packages_sqlalchemy_orm_events.html'
p203
sg10
S'/home/dundee/myFlaskApp/jahelp/flask/lib/python2.7/site-packages/sqlalchemy/orm/events'
p204
sg12
g13
(g14
g15
NtRp205
(dp206
g18
I1
sg19
I143
sg20
I157
sg21
I0
sg22
I5
sg23
I148
sg24
I138
sbssg25
S'\x8ao\xbb\xea>\xd8\x90\x82\xa8\xb7\xd4\x8c1\xd4\x95\xc5'
p207
ssS'_home_dundee_myFlaskApp_jahelp_flask_lib_python2_7_site-packages_flask_exthook'
p208
(dp209
g6
(dp210
g8
S'_home_dundee_myFlaskApp_jahelp_flask_lib_python2_7_site-packages_flask_exthook.html'
p211
sg10
S'/home/dundee/myFlaskApp/jahelp/flask/lib/python2.7/site-packages/flask/exthook'
p212
sg12
g13
(g14
g15
NtRp213
(dp214
g18
I1
sg19
I24
sg20
I53
sg21
I0
sg22
I1
sg23
I52
sg24
I23
sbssg25
S'\x8b0\x03\xads;\xfb\xda\x17\x94u\x11O\x81]\x1b'
p215
ssS'_home_dundee_myFlaskApp_jahelp_flask_lib_python2_7_site-packages_werkzeug_routing'
p216
(dp217
g6
(dp218
g8
S'_home_dundee_myFlaskApp_jahelp_flask_lib_python2_7_site-packages_werkzeug_routing.html'
p219
sg10
S'/home/dundee/myFlaskApp/jahelp/flask/lib/python2.7/site-packages/werkzeug/routing'
p220
sg12
g13
(g14
g15
NtRp221
(dp222
g18
I1
sg19
I263
sg20
I584
sg21
I0
sg22
I36
sg23
I459
sg24
I189
sbssg25
S'\x858\x9c\x16\xa7\xec\xb3W[\x83a\r\xc2<"\xd4'
p223
ssS'_home_dundee_myFlaskApp_jahelp_flask_lib_python2_7_site-packages_flask_globals'
p224
(dp225
g6
(dp226
g8
S'_home_dundee_myFlaskApp_jahelp_flask_lib_python2_7_site-packages_flask_globals.html'
p227
sg10
S'/home/dundee/myFlaskApp/jahelp/flask/lib/python2.7/site-packages/flask/globals'
p228
sg12
g13
(g14
g15
NtRp229
(dp230
g18
I1
sg19
I4
sg20
I19
sg21
I0
sg22
I2
sg23
I13
sg24
I2
sbssg25
S'^\xb2\x91\xaf]\xfaK\xac\x03BA\x90\xdeT\x0c\xc8'
p231
ssS'_home_dundee_myFlaskApp_jahelp_flask_lib_python2_7_site-packages_wtforms_compat'
p232
(dp233
g6
(dp234
g8
S'_home_dundee_myFlaskApp_jahelp_flask_lib_python2_7_site-packages_wtforms_compat.html'
p235
sg10
S'/home/dundee/myFlaskApp/jahelp/flask/lib/python2.7/site-packages/wtforms/compat'
p236
sg12
g13
(g14
g15
NtRp237
(dp238
g18
I1
sg19
I10
sg20
I14
sg21
I0
sg22
I1
sg23
I13
sg24
I9
sbssg25
S'\xef,y\xce\xaem\xb5)\xd8\xb8Y\xef\x9f\xbc\xea\xb6'
p239
ssS'_home_dundee_myFlaskApp_jahelp_flask_lib_python2_7_site-packages_sqlalchemy_orm_attributes'
p240
(dp241
g6
(dp242
g8
S'_home_dundee_myFlaskApp_jahelp_flask_lib_python2_7_site-packages_sqlalchemy_orm_attributes.html'
p243
sg10
S'/home/dundee/myFlaskApp/jahelp/flask/lib/python2.7/site-packages/sqlalchemy/orm/attributes'
p244
sg12
g13
(g14
g15
NtRp245
(dp246
g18
I1
sg19
I225
sg20
I610
sg21
I0
sg22
I13
sg23
I549
sg24
I189
sbssg25
S"'\xb9o\xde\xc3\x9e\x07\x01\x9dh\x0e\x9dmY\xa9\x8b"
p247
ssS'app___init__'
p248
(dp249
g61
(dp250
g8
S'app___init__.html'
p251
sg10
S'app/__init__'
p252
sg12
g13
(g14
g15
NtRp253
(dp254
g18
I1
sg19
I2
sg20
I30
sg21
I0
sg22
I0
sg23
I27
sg24
I2
sbssg67
S'\xe3\xaar\xa5&\xcdv\x8bJ\xb4\xc6\xf3\xd6f\xc1b'
p255
ssS'_home_dundee_myFlaskApp_jahelp_flask_lib_python2_7_site-packages_flask_templating'
p256
(dp257
g6
(dp258
g8
S'_home_dundee_myFlaskApp_jahelp_flask_lib_python2_7_site-packages_flask_templating.html'
p259
sg10
S'/home/dundee/myFlaskApp/jahelp/flask/lib/python2.7/site-packages/flask/templating'
p260
sg12
g13
(g14
g15
NtRp261
(dp262
g18
I1
sg19
I26
sg20
I70
sg21
I0
sg22
I2
sg23
I56
sg24
I24
sbssg25
S'X\x80\xbc\xc1~YsX\x8cY\xdf`\xd2\x1c\x91\xdf'
p263
ssS'_home_dundee_myFlaskApp_jahelp_flask_lib_python2_7_site-packages_flask_testing'
p264
(dp265
g6
(dp266
g8
S'_home_dundee_myFlaskApp_jahelp_flask_lib_python2_7_site-packages_flask_testing.html'
p267
sg10
S'/home/dundee/myFlaskApp/jahelp/flask/lib/python2.7/site-packages/flask/testing'
p268
sg12
g13
(g14
g15
NtRp269
(dp270
g18
I1
sg19
I14
sg20
I52
sg21
I0
sg22
I1
sg23
I28
sg24
I11
sbssg25
S")'^\xe0\xaa\x98\xabj:\x168!=vEf"
p271
ssS'_home_dundee_myFlaskApp_jahelp_flask_lib_python2_7_site-packages_flask_wtf_form'
p272
(dp273
g6
(dp274
g8
S'_home_dundee_myFlaskApp_jahelp_flask_lib_python2_7_site-packages_flask_wtf_form.html'
p275
sg10
S'/home/dundee/myFlaskApp/jahelp/flask/lib/python2.7/site-packages/flask_wtf/form'
p276
sg12
g13
(g14
g15
NtRp277
(dp278
g18
I1
sg19
I32
sg20
I58
sg21
I0
sg22
I9
sg23
I31
sg24
I19
sbssg25
S'\xef\xa5cX\x9a\xf1\xa2\xc3Oq0\x02\x14O+\x05'
p279
ssS'_home_dundee_myFlaskApp_jahelp_flask_lib_python2_7_site-packages_sqlalchemy_dialects_sqlite_pysqlite'
p280
(dp281
g6
(dp282
g8
S'_home_dundee_myFlaskApp_jahelp_flask_lib_python2_7_site-packages_sqlalchemy_dialects_sqlite_pysqlite.html'
p283
sg10
S'/home/dundee/myFlaskApp/jahelp/flask/lib/python2.7/site-packages/sqlalchemy/dialects/sqlite/pysqlite'
p284
sg12
g13
(g14
g15
NtRp285
(dp286
g18
I1
sg19
I20
sg20
I65
sg21
I0
sg22
I4
sg23
I20
sg24
I16
sbssg25
S'\x84\xaa\xeb\xcfM\xbc\xab1\x9d?\xcfH\xc1!/A'
p287
ssS'_home_dundee_myFlaskApp_jahelp_flask_lib_python2_7_site-packages_werkzeug_wsgi'
p288
(dp289
g6
(dp290
g8
S'_home_dundee_myFlaskApp_jahelp_flask_lib_python2_7_site-packages_werkzeug_wsgi.html'
p291
sg10
S'/home/dundee/myFlaskApp/jahelp/flask/lib/python2.7/site-packages/werkzeug/wsgi'
p292
sg12
g13
(g14
g15
NtRp293
(dp294
g18
I1
sg19
I213
sg20
I449
sg21
I0
sg22
I21
sg23
I362
sg24
I180
sbssg25
S'>f2\x87t\xd0\x1d\x85\xe5+\xf4\xcc\xcb\xfa\xdeH'
p295
ssS'_home_dundee_myFlaskApp_jahelp_flask_lib_python2_7_site-packages_flask_sqlalchemy'
p296
(dp297
g6
(dp298
g8
S'_home_dundee_myFlaskApp_jahelp_flask_lib_python2_7_site-packages_flask_sqlalchemy.html'
p299
sg10
S'/home/dundee/myFlaskApp/jahelp/flask/lib/python2.7/site-packages/flask_sqlalchemy'
p300
sg12
g13
(g14
g15
NtRp301
(dp302
g18
I1
sg19
I127
sg20
I409
sg21
I0
sg22
I22
sg23
I280
sg24
I85
sbssg25
S'6q\xa1\x195Q\xef\xab?\xb0\x94%zP\xd7\xc7'
p303
ssS'_home_dundee_myFlaskApp_jahelp_flask_lib_python2_7_site-packages_sqlalchemy_dialects_sqlite___init__'
p304
(dp305
g6
(dp306
g8
S'_home_dundee_myFlaskApp_jahelp_flask_lib_python2_7_site-packages_sqlalchemy_dialects_sqlite___init__.html'
p307
sg10
S'/home/dundee/myFlaskApp/jahelp/flask/lib/python2.7/site-packages/sqlalchemy/dialects/sqlite/__init__'
p308
sg12
g13
(g14
g15
NtRp309
(dp310
g18
I1
sg19
I0
sg20
I4
sg21
I0
sg22
I0
sg23
I0
sg24
I0
sbssg25
S'\xf5xG\xf6\x9f%\xd4?00\xb1\xbb\x190\x9am'
p311
ssS'_home_dundee_myFlaskApp_jahelp_flask_lib_python2_7_site-packages_wtforms_ext_csrf_form'
p312
(dp313
g6
(dp314
g8
S'_home_dundee_myFlaskApp_jahelp_flask_lib_python2_7_site-packages_wtforms_ext_csrf_form.html'
p315
sg10
S'/home/dundee/myFlaskApp/jahelp/flask/lib/python2.7/site-packages/wtforms/ext/csrf/form'
p316
sg12
g13
(g14
g15
NtRp317
(dp318
g18
I1
sg19
I2
sg20
I18
sg21
I0
sg22
I0
sg23
I16
sg24
I2
sbssg25
S'\x9bt%*\x0e*\x96\x83[mT\xb9\x9e\xc2\x05w'
p319
ssS'_home_dundee_myFlaskApp_jahelp_flask_lib_python2_7_site-packages_markupsafe__native'
p320
(dp321
g6
(dp322
g8
S'_home_dundee_myFlaskApp_jahelp_flask_lib_python2_7_site-packages_markupsafe__native.html'
p323
sg10
S'/home/dundee/myFlaskApp/jahelp/flask/lib/python2.7/site-packages/markupsafe/_native'
p324
sg12
g13
(g14
g15
NtRp325
(dp326
g18
I1
sg19
I6
sg20
I15
sg21
I0
sg22
I0
sg23
I12
sg24
I4
sbssg25
S'\x99\x9d\xa8\x14&Yj\x9a\xa99C\xfciKY\x0b'
p327
ssS'_home_dundee_myFlaskApp_jahelp_flask_lib_python2_7_site-packages_werkzeug_contrib_securecookie'
p328
(dp329
g6
(dp330
g8
S'_home_dundee_myFlaskApp_jahelp_flask_lib_python2_7_site-packages_werkzeug_contrib_securecookie.html'
p331
sg10
S'/home/dundee/myFlaskApp/jahelp/flask/lib/python2.7/site-packages/werkzeug/contrib/securecookie'
p332
sg12
g13
(g14
g15
NtRp333
(dp334
g18
I1
sg19
I36
sg20
I102
sg21
I0
sg22
I12
sg23
I47
sg24
I14
sbssg25
S')apv\xc4\x85\xa2\x17\r\xf6\x973"nZ\xba'
p335
ssS'_home_dundee_myFlaskApp_jahelp_flask_lib_python2_7_site-packages_werkzeug_local'
p336
(dp337
g6
(dp338
g8
S'_home_dundee_myFlaskApp_jahelp_flask_lib_python2_7_site-packages_werkzeug_local.html'
p339
sg10
S'/home/dundee/myFlaskApp/jahelp/flask/lib/python2.7/site-packages/werkzeug/local'
p340
sg12
g13
(g14
g15
NtRp341
(dp342
g18
I1
sg19
I134
sg20
I210
sg21
I0
sg22
I8
sg23
I174
sg24
I126
sbssg25
S'\xd1\xda\xad\x0e">\xdc\x83\xcf\xd9\xbc\xea\xd0k\xe0\x94'
p343
ssS'_home_dundee_myFlaskApp_jahelp_flask_lib_python2_7_site-packages_flask_app'
p344
(dp345
g6
(dp346
g8
S'_home_dundee_myFlaskApp_jahelp_flask_lib_python2_7_site-packages_flask_app.html'
p347
sg10
S'/home/dundee/myFlaskApp/jahelp/flask/lib/python2.7/site-packages/flask/app'
p348
sg12
g13
(g14
g15
NtRp349
(dp350
g18
I1
sg19
I167
sg20
I484
sg21
I0
sg22
I26
sg23
I391
sg24
I124
sbssg25
S'\xc5\x1dx\x87ka=mP\xf0\xa1"H\xec\xbd\xa7'
p351
ssS'_home_dundee_myFlaskApp_jahelp_flask_lib_python2_7_site-packages_sqlalchemy_dialects_sqlite_base'
p352
(dp353
g6
(dp354
g8
S'_home_dundee_myFlaskApp_jahelp_flask_lib_python2_7_site-packages_sqlalchemy_dialects_sqlite_base.html'
p355
sg10
S'/home/dundee/myFlaskApp/jahelp/flask/lib/python2.7/site-packages/sqlalchemy/dialects/sqlite/base'
p356
sg12
g13
(g14
g15
NtRp357
(dp358
g18
I1
sg19
I131
sg20
I367
sg21
I0
sg22
I22
sg23
I193
sg24
I84
sbssg25
S'\xccB\x183\x97M\x82\xd5\xdb\x1389\x8cq\x00-'
p359
ssS'_home_dundee_myFlaskApp_jahelp_flask_lib_python2_7_site-packages_flask_ctx'
p360
(dp361
g6
(dp362
g8
S'_home_dundee_myFlaskApp_jahelp_flask_lib_python2_7_site-packages_flask_ctx.html'
p363
sg10
S'/home/dundee/myFlaskApp/jahelp/flask/lib/python2.7/site-packages/flask/ctx'
p364
sg12
g13
(g14
g15
NtRp365
(dp366
g18
I1
sg19
I25
sg20
I96
sg21
I0
sg22
I12
sg23
I41
sg24
I14
sbssg25
S'\x81\xa8+\xe7c\xe9oy\xac\x14C\xa9\x81\xbf\rS'
p367
ssS'_home_dundee_myFlaskApp_jahelp_flask_lib_python2_7_site-packages_sqlalchemy_orm_interfaces'
p368
(dp369
g6
(dp370
g8
S'_home_dundee_myFlaskApp_jahelp_flask_lib_python2_7_site-packages_sqlalchemy_orm_interfaces.html'
p371
sg10
S'/home/dundee/myFlaskApp/jahelp/flask/lib/python2.7/site-packages/sqlalchemy/orm/interfaces'
p372
sg12
g13
(g14
g15
NtRp373
(dp374
g18
I1
sg19
I95
sg20
I312
sg21
I0
sg22
I3
sg23
I288
sg24
I90
sbssg25
S"\x91\x8f\xc6\x8f\xd1~h%\x1b?(\xa6k\xa9?'"
p375
ssS'_home_dundee_myFlaskApp_jahelp_flask_lib_python2_7_site-packages_jinja2_lexer'
p376
(dp377
g6
(dp378
g8
S'_home_dundee_myFlaskApp_jahelp_flask_lib_python2_7_site-packages_jinja2_lexer.html'
p379
sg10
S'/home/dundee/myFlaskApp/jahelp/flask/lib/python2.7/site-packages/jinja2/lexer'
p380
sg12
g13
(g14
g15
NtRp381
(dp382
g18
I1
sg19
I138
sg20
I346
sg21
I0
sg22
I24
sg23
I193
sg24
I55
sbssg25
S'\xc9\x03\xb7\xc4\xd4\xbd\xc9\x9e\xc2\xdf\x0f04\xaf_\x8f'
p383
ssS'_home_dundee_myFlaskApp_jahelp_flask_lib_python2_7_site-packages_sqlalchemy_sql_compiler'
p384
(dp385
g6
(dp386
g8
S'_home_dundee_myFlaskApp_jahelp_flask_lib_python2_7_site-packages_sqlalchemy_sql_compiler.html'
p387
sg10
S'/home/dundee/myFlaskApp/jahelp/flask/lib/python2.7/site-packages/sqlalchemy/sql/compiler'
p388
sg12
g13
(g14
g15
NtRp389
(dp390
g18
I1
sg19
I541
sg20
I1007
sg21
I0
sg22
I93
sg23
I689
sg24
I355
sbssg25
S'P\xa7\x98\xc0 i+j\xb6\x17\x86\xd7O\xcb\x85\xaa'
p391
ssS'_home_dundee_myFlaskApp_jahelp_flask_lib_python2_7_site-packages_jinja2_ext'
p392
(dp393
g6
(dp394
g8
S'_home_dundee_myFlaskApp_jahelp_flask_lib_python2_7_site-packages_jinja2_ext.html'
p395
sg10
S'/home/dundee/myFlaskApp/jahelp/flask/lib/python2.7/site-packages/jinja2/ext'
p396
sg12
g13
(g14
g15
NtRp397
(dp398
g18
I1
sg19
I139
sg20
I305
sg21
I0
sg22
I1
sg23
I292
sg24
I136
sbssg25
S'W9\xc6a}\xf3z@j\x16\xa8\xa8\x08\xe4\x95\xc5'
p399
ssS'_home_dundee_myFlaskApp_jahelp_flask_lib_python2_7_site-packages_flask_sessions'
p400
(dp401
g6
(dp402
g8
S'_home_dundee_myFlaskApp_jahelp_flask_lib_python2_7_site-packages_flask_sessions.html'
p403
sg10
S'/home/dundee/myFlaskApp/jahelp/flask/lib/python2.7/site-packages/flask/sessions'
p404
sg12
g13
(g14
g15
NtRp405
(dp406
g18
I1
sg19
I12
sg20
I57
sg21
I0
sg22
I5
sg23
I39
sg24
I5
sbssg25
S'\x80d\x9b\x056\xda\xd4\xa5R\xbcEw\xf1\r\x9bx'
p407
ssS'app_models'
p408
(dp409
g61
(dp410
g8
S'app_models.html'
p411
sg10
S'app/models'
p412
sg12
g13
(g14
g15
NtRp413
(dp414
g18
I1
sg19
I0
sg20
I125
sg21
I0
sg22
I0
sg23
I120
sg24
I0
sbssg67
S'o7s+R8\xa9<\xee\x92,:\xff\xfa\x9a\x02'
p415
ssS'_home_dundee_myFlaskApp_jahelp_flask_lib_python2_7_site-packages_sqlalchemy_engine_strategies'
p416
(dp417
g6
(dp418
g8
S'_home_dundee_myFlaskApp_jahelp_flask_lib_python2_7_site-packages_sqlalchemy_engine_strategies.html'
p419
sg10
S'/home/dundee/myFlaskApp/jahelp/flask/lib/python2.7/site-packages/sqlalchemy/engine/strategies'
p420
sg12
g13
(g14
g15
NtRp421
(dp422
g18
I1
sg19
I40
sg20
I123
sg21
I0
sg22
I8
sg23
I76
sg24
I20
sbssg25
S'\x993\xee\x1cpza\xca\xe4\xee\x18\xd7\xddPdq'
p423
ssS'_home_dundee_myFlaskApp_jahelp_flask_lib_python2_7_site-packages_sqlalchemy_sql_operators'
p424
(dp425
g6
(dp426
g8
S'_home_dundee_myFlaskApp_jahelp_flask_lib_python2_7_site-packages_sqlalchemy_sql_operators.html'
p427
sg10
S'/home/dundee/myFlaskApp/jahelp/flask/lib/python2.7/site-packages/sqlalchemy/sql/operators'
p428
sg12
g13
(g14
g15
NtRp429
(dp430
g18
I1
sg19
I2
sg20
I155
sg21
I0
sg22
I1
sg23
I152
sg24
I1
sbssg25
S'h\xa4\x841qH>G(\x17\x92\xc6p$\xdb\xb7'
p431
ssS'_home_dundee_myFlaskApp_jahelp_flask_lib_python2_7_site-packages_sqlalchemy_engine_base'
p432
(dp433
g6
(dp434
g8
S'_home_dundee_myFlaskApp_jahelp_flask_lib_python2_7_site-packages_sqlalchemy_engine_base.html'
p435
sg10
S'/home/dundee/myFlaskApp/jahelp/flask/lib/python2.7/site-packages/sqlalchemy/engine/base'
p436
sg12
g13
(g14
g15
NtRp437
(dp438
g18
I1
sg19
I381
sg20
I1175
sg21
I0
sg22
I48
sg23
I926
sg24
I283
sbssg25
S'\xf8s\x80N\xdf\x89\xb5\xc0\x95\xb0\xe4\xd3T\xcc\xd4x'
p439
ssS'_home_dundee_myFlaskApp_jahelp_flask_lib_python2_7_site-packages_sqlalchemy_engine___init__'
p440
(dp441
g6
(dp442
g8
S'_home_dundee_myFlaskApp_jahelp_flask_lib_python2_7_site-packages_sqlalchemy_engine___init__.html'
p443
sg10
S'/home/dundee/myFlaskApp/jahelp/flask/lib/python2.7/site-packages/sqlalchemy/engine/__init__'
p444
sg12
g13
(g14
g15
NtRp445
(dp446
g18
I1
sg19
I4
sg20
I20
sg21
I0
sg22
I0
sg23
I17
sg24
I4
sbssg25
S'\xc9\xee\xc9\x8f\xb3\t\xe5.\xc9{*\xd3\xf9\xf7v|'
p447
ssS'_home_dundee_myFlaskApp_jahelp_flask_lib_python2_7_site-packages_sqlalchemy_sql_visitors'
p448
(dp449
g6
(dp450
g8
S'_home_dundee_myFlaskApp_jahelp_flask_lib_python2_7_site-packages_sqlalchemy_sql_visitors.html'
p451
sg10
S'/home/dundee/myFlaskApp/jahelp/flask/lib/python2.7/site-packages/sqlalchemy/sql/visitors'
p452
sg12
g13
(g14
g15
NtRp453
(dp454
g18
I1
sg19
I49
sg20
I126
sg21
I0
sg22
I9
sg23
I72
sg24
I23
sbssg25
S'{\x06\x95\x9d\x94\xeaPsS\xd6\x14\xb2w\x9fKZ'
p455
ssS'_home_dundee_myFlaskApp_jahelp_flask_lib_python2_7_site-packages_sqlalchemy_orm_identity'
p456
(dp457
g6
(dp458
g8
S'_home_dundee_myFlaskApp_jahelp_flask_lib_python2_7_site-packages_sqlalchemy_orm_identity.html'
p459
sg10
S'/home/dundee/myFlaskApp/jahelp/flask/lib/python2.7/site-packages/sqlalchemy/orm/identity'
p460
sg12
g13
(g14
g15
NtRp461
(dp462
g18
I1
sg19
I60
sg20
I173
sg21
I0
sg22
I7
sg23
I132
sg24
I43
sbssg25
S'\xd1\x9bw\xf6\x82\x802\xe9\x03\x8e\xf6\xde54\xca\xcc'
p463
ssS'_home_dundee_myFlaskApp_jahelp_flask_lib_python2_7_site-packages_sqlalchemy_orm_session'
p464
(dp465
g6
(dp466
g8
S'_home_dundee_myFlaskApp_jahelp_flask_lib_python2_7_site-packages_sqlalchemy_orm_session.html'
p467
sg10
S'/home/dundee/myFlaskApp/jahelp/flask/lib/python2.7/site-packages/sqlalchemy/orm/session'
p468
sg12
g13
(g14
g15
NtRp469
(dp470
g18
I1
sg19
I343
sg20
I682
sg21
I0
sg22
I57
sg23
I460
sg24
I233
sbssg25
S'\x95\xf23\xcbM\x94}\xfe\xe9\x16\xc9m\xea\xb9JH'
p471
ssS'_home_dundee_myFlaskApp_jahelp_flask_lib_python2_7_site-packages_flask_login'
p472
(dp473
g6
(dp474
g8
S'_home_dundee_myFlaskApp_jahelp_flask_lib_python2_7_site-packages_flask_login.html'
p475
sg10
S'/home/dundee/myFlaskApp/jahelp/flask/lib/python2.7/site-packages/flask_login'
p476
sg12
g13
(g14
g15
NtRp477
(dp478
g18
I1
sg19
I92
sg20
I304
sg21
I13
sg22
I25
sg23
I199
sg24
I57
sbssg25
S'A\xf5\xed\x11\x8e\xca\xfc\x01\xb5/\xd8\xdcH\x0c0\xcb'
p479
ssS'_home_dundee_myFlaskApp_jahelp_flask_lib_python2_7_site-packages_sqlalchemy_orm_instrumentation'
p480
(dp481
g6
(dp482
g8
S'_home_dundee_myFlaskApp_jahelp_flask_lib_python2_7_site-packages_sqlalchemy_orm_instrumentation.html'
p483
sg10
S'/home/dundee/myFlaskApp/jahelp/flask/lib/python2.7/site-packages/sqlalchemy/orm/instrumentation'
p484
sg12
g13
(g14
g15
NtRp485
(dp486
g18
I1
sg19
I93
sg20
I335
sg21
I0
sg22
I3
sg23
I323
sg24
I89
sbssg25
S"\x12\xbfr\xda'\xd8\x18\xab[\xa7\x94\xfb\x88\xa4\x0b\xaa"
p487
ssS'_home_dundee_myFlaskApp_jahelp_flask_lib_python2_7_site-packages_jinja2_loaders'
p488
(dp489
g6
(dp490
g8
S'_home_dundee_myFlaskApp_jahelp_flask_lib_python2_7_site-packages_jinja2_loaders.html'
p491
sg10
S'/home/dundee/myFlaskApp/jahelp/flask/lib/python2.7/site-packages/jinja2/loaders'
p492
sg12
g13
(g14
g15
NtRp493
(dp494
g18
I1
sg19
I70
sg20
I221
sg21
I0
sg22
I11
sg23
I189
sg24
I59
sbssg25
S'\x97\x19\x82;f"\x06\xa5\x13\xbaBW\x91\x16\x88\x1d'
p495
ssS'_home_dundee_myFlaskApp_jahelp_flask_lib_python2_7_site-packages_jinja2_visitor'
p496
(dp497
g6
(dp498
g8
S'_home_dundee_myFlaskApp_jahelp_flask_lib_python2_7_site-packages_jinja2_visitor.html'
p499
sg10
S'/home/dundee/myFlaskApp/jahelp/flask/lib/python2.7/site-packages/jinja2/visitor'
p500
sg12
g13
(g14
g15
NtRp501
(dp502
g18
I1
sg19
I22
sg20
I40
sg21
I0
sg22
I4
sg23
I17
sg24
I6
sbssg25
S'\xef\xa3\xef\x86V\x14\x17!\xcfd\x0by_\x14\xe1q'
p503
ssS'_home_dundee_myFlaskApp_jahelp_flask_lib_python2_7_site-packages_sqlalchemy_orm_mapper'
p504
(dp505
g6
(dp506
g8
S'_home_dundee_myFlaskApp_jahelp_flask_lib_python2_7_site-packages_sqlalchemy_orm_mapper.html'
p507
sg10
S'/home/dundee/myFlaskApp/jahelp/flask/lib/python2.7/site-packages/sqlalchemy/orm/mapper'
p508
sg12
g13
(g14
g15
NtRp509
(dp510
g18
I1
sg19
I602
sg20
I1023
sg21
I0
sg22
I45
sg23
I836
sg24
I503
sbssg25
S'>\x18\xc6\x86\x8d!\x0fU%\xf8\x0b\x183$p\xc9'
p511
ssS'_home_dundee_myFlaskApp_jahelp_flask_lib_python2_7_site-packages_markupsafe___init__'
p512
(dp513
g6
(dp514
g8
S'_home_dundee_myFlaskApp_jahelp_flask_lib_python2_7_site-packages_markupsafe___init__.html'
p515
sg10
S'/home/dundee/myFlaskApp/jahelp/flask/lib/python2.7/site-packages/markupsafe/__init__'
p516
sg12
g13
(g14
g15
NtRp517
(dp518
g18
I1
sg19
I46
sg20
I112
sg21
I0
sg22
I2
sg23
I108
sg24
I44
sbssg25
S'v\x93\xdb\xb1\xad\x0e\x07\xad5i\xa16\xc6\x83\xea\xf8'
p519
ssS'_home_dundee_myFlaskApp_jahelp_flask_lib_python2_7_site-packages_werkzeug_contrib_sessions'
p520
(dp521
g6
(dp522
g8
S'_home_dundee_myFlaskApp_jahelp_flask_lib_python2_7_site-packages_werkzeug_contrib_sessions.html'
p523
sg10
S'/home/dundee/myFlaskApp/jahelp/flask/lib/python2.7/site-packages/werkzeug/contrib/sessions'
p524
sg12
g13
(g14
g15
NtRp525
(dp526
g18
I1
sg19
I38
sg20
I157
sg21
I0
sg22
I0
sg23
I152
sg24
I38
sbssg25
S'\xeeM3\x83\xdf\xb4\xc2\x94t\xca\xda\xe2\xa6Y\xd4\x98'
p527
ssS'_home_dundee_myFlaskApp_jahelp_flask_lib_python2_7_site-packages_sqlalchemy_orm_dependency'
p528
(dp529
g6
(dp530
g8
S'_home_dundee_myFlaskApp_jahelp_flask_lib_python2_7_site-packages_sqlalchemy_orm_dependency.html'
p531
sg10
S'/home/dundee/myFlaskApp/jahelp/flask/lib/python2.7/site-packages/sqlalchemy/orm/dependency'
p532
sg12
g13
(g14
g15
NtRp533
(dp534
g18
I1
sg19
I348
sg20
I474
sg21
I0
sg22
I9
sg23
I446
sg24
I326
sbssg25
S",\xf5\xcdyPw\x86'\xe0\x0c\xf2\xd6\xa01j\xd6"
p535
ssS'app_forms'
p536
(dp537
g61
(dp538
g8
S'app_forms.html'
p539
sg10
S'app/forms'
p540
sg12
g13
(g14
g15
NtRp541
(dp542
g18
I1
sg19
I4
sg20
I100
sg21
I0
sg22
I2
sg23
I96
sg24
I2
sbssg67
S'\xf3\x10\xe7\xe2]\xbe\xf35\x08\xbd\x84\xf7\xb9\x07\xeb\xf0'
p543
ssS'_home_dundee_myFlaskApp_jahelp_flask_lib_python2_7_site-packages_wtforms_form'
p544
(dp545
g6
(dp546
g8
S'_home_dundee_myFlaskApp_jahelp_flask_lib_python2_7_site-packages_wtforms_form.html'
p547
sg10
S'/home/dundee/myFlaskApp/jahelp/flask/lib/python2.7/site-packages/wtforms/form'
p548
sg12
g13
(g14
g15
NtRp549
(dp550
g18
I1
sg19
I60
sg20
I122
sg21
I0
sg22
I8
sg23
I68
sg24
I20
sbssg25
S'<\xaf`\xc5\xdbb\xc7\x9f\xcc\x83\x18\x8e\x8bK\x93\xdc'
p551
ssS'_home_dundee_myFlaskApp_jahelp_flask_lib_python2_7_site-packages_werkzeug_exceptions'
p552
(dp553
g6
(dp554
g8
S'_home_dundee_myFlaskApp_jahelp_flask_lib_python2_7_site-packages_werkzeug_exceptions.html'
p555
sg10
S'/home/dundee/myFlaskApp/jahelp/flask/lib/python2.7/site-packages/werkzeug/exceptions'
p556
sg12
g13
(g14
g15
NtRp557
(dp558
g18
I1
sg19
I22
sg20
I159
sg21
I2
sg22
I1
sg23
I154
sg24
I21
sbssg25
S'\xec\xc7]\x96y\xe2\x1b\xb3eP\x9cs\x82\xe5\x8c,'
p559
ssS'_home_dundee_myFlaskApp_jahelp_flask_lib_python2_7_site-packages_jinja2_compiler'
p560
(dp561
g6
(dp562
g8
S'_home_dundee_myFlaskApp_jahelp_flask_lib_python2_7_site-packages_jinja2_compiler.html'
p563
sg10
S'/home/dundee/myFlaskApp/jahelp/flask/lib/python2.7/site-packages/jinja2/compiler'
p564
sg12
g13
(g14
g15
NtRp565
(dp566
g18
I1
sg19
I429
sg20
I1030
sg21
I0
sg22
I81
sg23
I583
sg24
I241
sbssg25
S'\xdc\x8c\xe2i\xebPfI&\x93\xe4!\x93?G\xcb'
p567
ssS'_home_dundee_myFlaskApp_jahelp_flask_lib_python2_7_site-packages_sqlalchemy_util__collections'
p568
(dp569
g6
(dp570
g8
S'_home_dundee_myFlaskApp_jahelp_flask_lib_python2_7_site-packages_sqlalchemy_util__collections.html'
p571
sg10
S'/home/dundee/myFlaskApp/jahelp/flask/lib/python2.7/site-packages/sqlalchemy/util/_collections'
p572
sg12
g13
(g14
g15
NtRp573
(dp574
g18
I1
sg19
I146
sg20
I580
sg21
I4
sg22
I11
sg23
I504
sg24
I129
sbssg25
S'\xdf%\xeb\x9c\n\xef\xfa\xd1k\xffZ\x08TGX\xda'
p575
ssS'_home_dundee_myFlaskApp_jahelp_flask_lib_python2_7_site-packages_sqlalchemy_util_compat'
p576
(dp577
g6
(dp578
g8
S'_home_dundee_myFlaskApp_jahelp_flask_lib_python2_7_site-packages_sqlalchemy_util_compat.html'
p579
sg10
S'/home/dundee/myFlaskApp/jahelp/flask/lib/python2.7/site-packages/sqlalchemy/util/compat'
p580
sg12
g13
(g14
g15
NtRp581
(dp582
g18
I1
sg19
I41
sg20
I167
sg21
I0
sg22
I0
sg23
I161
sg24
I37
sbssg25
S"\x0b\x8aE\xf8\x164i\x8dy\xbc3p'T\xe8\xae"
p583
ssS'_home_dundee_myFlaskApp_jahelp_flask_lib_python2_7_site-packages_sqlalchemy_orm_util'
p584
(dp585
g6
(dp586
g8
S'_home_dundee_myFlaskApp_jahelp_flask_lib_python2_7_site-packages_sqlalchemy_orm_util.html'
p587
sg10
S'/home/dundee/myFlaskApp/jahelp/flask/lib/python2.7/site-packages/sqlalchemy/orm/util'
p588
sg12
g13
(g14
g15
NtRp589
(dp590
g18
I1
sg19
I134
sg20
I342
sg21
I0
sg22
I11
sg23
I313
sg24
I123
sbssg25
S'\x88\xd1wg\xdc\x8a\xa7\x7f\x8c\xba\xc0\xa9&\xf7\x95C'
p591
ssS'_home_dundee_myFlaskApp_jahelp_flask_lib_python2_7_site-packages_sqlalchemy_orm_query'
p592
(dp593
g6
(dp594
g8
S'_home_dundee_myFlaskApp_jahelp_flask_lib_python2_7_site-packages_sqlalchemy_orm_query.html'
p595
sg10
S'/home/dundee/myFlaskApp/jahelp/flask/lib/python2.7/site-packages/sqlalchemy/orm/query'
p596
sg12
g13
(g14
g15
NtRp597
(dp598
g18
I1
sg19
I590
sg20
I1154
sg21
I0
sg22
I93
sg23
I890
sg24
I465
sbssg25
S'\xe1\xd6\xf0\x81)\x04_\x98\xf5\x07\xe4n\xa0u\xa8\xee'
p599
ssS'_home_dundee_myFlaskApp_jahelp_flask_lib_python2_7_site-packages_sqlalchemy_orm_persistence'
p600
(dp601
g6
(dp602
g8
S'_home_dundee_myFlaskApp_jahelp_flask_lib_python2_7_site-packages_sqlalchemy_orm_persistence.html'
p603
sg10
S'/home/dundee/myFlaskApp/jahelp/flask/lib/python2.7/site-packages/sqlalchemy/orm/persistence'
p604
sg12
g13
(g14
g15
NtRp605
(dp606
g18
I1
sg19
I197
sg20
I297
sg21
I0
sg22
I33
sg23
I155
sg24
I101
sbssg25
S'{8\xac\x1ag%\x1c\x94s\xe7I\xa4G\xd9o\x1c'
p607
ssS'_home_dundee_myFlaskApp_jahelp_flask_lib_python2_7_site-packages_jinja2_parser'
p608
(dp609
g6
(dp610
g8
S'_home_dundee_myFlaskApp_jahelp_flask_lib_python2_7_site-packages_jinja2_parser.html'
p611
sg10
S'/home/dundee/myFlaskApp/jahelp/flask/lib/python2.7/site-packages/jinja2/parser'
p612
sg12
g13
(g14
g15
NtRp613
(dp614
g18
I1
sg19
I283
sg20
I646
sg21
I0
sg22
I50
sg23
I341
sg24
I156
sbssg25
S'\xc6/\xed\xe2\x06z\xf0@\xef\x18\x8f\x13\x86b@\xe2'
p615
ssS'_home_dundee_myFlaskApp_jahelp_flask_lib_python2_7_site-packages_werkzeug_http'
p616
(dp617
g6
(dp618
g8
S'_home_dundee_myFlaskApp_jahelp_flask_lib_python2_7_site-packages_werkzeug_http.html'
p619
sg10
S'/home/dundee/myFlaskApp/jahelp/flask/lib/python2.7/site-packages/werkzeug/http'
p620
sg12
g13
(g14
g15
NtRp621
(dp622
g18
I1
sg19
I206
sg20
I373
sg21
I4
sg22
I14
sg23
I317
sg24
I174
sbssg25
S'\xab7\x8e\xcai\xab\x91V\xfcrn\x0e\x04c\x02\x06'
p623
ssS'_home_dundee_myFlaskApp_jahelp_flask_lib_python2_7_site-packages_flask_wrappers'
p624
(dp625
g6
(dp626
g8
S'_home_dundee_myFlaskApp_jahelp_flask_lib_python2_7_site-packages_flask_wrappers.html'
p627
sg10
S'/home/dundee/myFlaskApp/jahelp/flask/lib/python2.7/site-packages/flask/wrappers'
p628
sg12
g13
(g14
g15
NtRp629
(dp630
g18
I1
sg19
I15
sg20
I46
sg21
I0
sg22
I4
sg23
I37
sg24
I10
sbssg25
S"\x13k\xc3\xbe'\x93\xfbw}\xcd\x1f\xeeJL\x98~"
p631
ssS'_home_dundee_myFlaskApp_jahelp_flask_lib_python2_7_site-packages_sqlalchemy_engine_ddl'
p632
(dp633
g6
(dp634
g8
S'_home_dundee_myFlaskApp_jahelp_flask_lib_python2_7_site-packages_sqlalchemy_engine_ddl.html'
p635
sg10
S'/home/dundee/myFlaskApp/jahelp/flask/lib/python2.7/site-packages/sqlalchemy/engine/ddl'
p636
sg12
g13
(g14
g15
NtRp637
(dp638
g18
I1
sg19
I48
sg20
I93
sg21
I0
sg22
I9
sg23
I38
sg24
I21
sbssg25
S'\xa8\x11p\xbe\x9d<.\xa3\xe5C\x9bh\x96\x17[\xe1'
p639
ssS'_home_dundee_myFlaskApp_jahelp_flask_lib_python2_7_site-packages_sqlalchemy_schema'
p640
(dp641
g6
(dp642
g8
S'_home_dundee_myFlaskApp_jahelp_flask_lib_python2_7_site-packages_sqlalchemy_schema.html'
p643
sg10
S'/home/dundee/myFlaskApp/jahelp/flask/lib/python2.7/site-packages/sqlalchemy/schema'
p644
sg12
g13
(g14
g15
NtRp645
(dp646
g18
I1
sg19
I433
sg20
I1010
sg21
I0
sg22
I36
sg23
I936
sg24
I396
sbssg25
S'F\x89\xad\x1fx\xd6\xa1\xbdg\xf9 !\xcd\xcd\x92\xaa'
p647
ssS'_home_dundee_myFlaskApp_jahelp_flask_lib_python2_7_site-packages_flask_config'
p648
(dp649
g6
(dp650
g8
S'_home_dundee_myFlaskApp_jahelp_flask_lib_python2_7_site-packages_flask_config.html'
p651
sg10
S'/home/dundee/myFlaskApp/jahelp/flask/lib/python2.7/site-packages/flask/config'
p652
sg12
g13
(g14
g15
NtRp653
(dp654
g18
I1
sg19
I16
sg20
I51
sg21
I0
sg22
I2
sg23
I47
sg24
I14
sbssg25
S'\x87\x0f+J p_X\xa7W\x98\x91=&\xf3\x04'
p655
ssS'app_helperlist'
p656
(dp657
g61
(dp658
g8
S'app_helperlist.html'
p659
sg10
S'app/helperlist'
p660
sg12
g13
(g14
g15
NtRp661
(dp662
g18
I1
sg19
I4
sg20
I49
sg21
I0
sg22
I0
sg23
I48
sg24
I4
sbssg67
S'j\xb7\xa0{*\xd4\xd4\xb2DM\xd4n`[93'
p663
ssS'_home_dundee_myFlaskApp_jahelp_flask_lib_python2_7_site-packages_jinja2_optimizer'
p664
(dp665
g6
(dp666
g8
S'_home_dundee_myFlaskApp_jahelp_flask_lib_python2_7_site-packages_jinja2_optimizer.html'
p667
sg10
S'/home/dundee/myFlaskApp/jahelp/flask/lib/python2.7/site-packages/jinja2/optimizer'
p668
sg12
g13
(g14
g15
NtRp669
(dp670
g18
I1
sg19
I6
sg20
I31
sg21
I0
sg22
I1
sg23
I18
sg24
I5
sbssg25
S'\xee\x96\xd5\x16\xb2\x00\x02\xa6\xacA9\x1f\x00\xad\x0c\xe2'
p671
ssS'_home_dundee_myFlaskApp_jahelp_flask_lib_python2_7_site-packages_werkzeug_security'
p672
(dp673
g6
(dp674
g8
S'_home_dundee_myFlaskApp_jahelp_flask_lib_python2_7_site-packages_werkzeug_security.html'
p675
sg10
S'/home/dundee/myFlaskApp/jahelp/flask/lib/python2.7/site-packages/werkzeug/security'
p676
sg12
g13
(g14
g15
NtRp677
(dp678
g18
I1
sg19
I58
sg20
I115
sg21
I0
sg22
I14
sg23
I64
sg24
I34
sbssg25
S'\xf1\xe8t\x1c;\xba\x9eq16^\x92x\x90\x0b\xd5'
p679
ssS'_home_dundee_myFlaskApp_jahelp_flask_lib_python2_7_site-packages_sqlalchemy_ext_declarative'
p680
(dp681
g6
(dp682
g8
S'_home_dundee_myFlaskApp_jahelp_flask_lib_python2_7_site-packages_sqlalchemy_ext_declarative.html'
p683
sg10
S'/home/dundee/myFlaskApp/jahelp/flask/lib/python2.7/site-packages/sqlalchemy/ext/declarative'
p684
sg12
g13
(g14
g15
NtRp685
(dp686
g18
I1
sg19
I227
sg20
I312
sg21
I0
sg22
I1
sg23
I308
sg24
I224
sbssg25
S'\xc9n\x12\x7f\x0bW\x17\x96\xc44k\r\xf2,\xdbA'
p687
ssS'_home_dundee_myFlaskApp_jahelp_flask_lib_python2_7_site-packages_werkzeug_utils'
p688
(dp689
g6
(dp690
g8
S'_home_dundee_myFlaskApp_jahelp_flask_lib_python2_7_site-packages_werkzeug_utils.html'
p691
sg10
S'/home/dundee/myFlaskApp/jahelp/flask/lib/python2.7/site-packages/werkzeug/utils'
p692
sg12
g13
(g14
g15
NtRp693
(dp694
g18
I1
sg19
I104
sg20
I240
sg21
I0
sg22
I9
sg23
I218
sg24
I94
sbssg25
S'\x02\xa6\x90\xed\xed\xf9\xc0\x95\xff\x8f\xde\x86Y\x83\xf3\x18'
p695
ssS'_home_dundee_myFlaskApp_jahelp_flask_lib_python2_7_site-packages_sqlalchemy_log'
p696
(dp697
g6
(dp698
g8
S'_home_dundee_myFlaskApp_jahelp_flask_lib_python2_7_site-packages_sqlalchemy_log.html'
p699
sg10
S'/home/dundee/myFlaskApp/jahelp/flask/lib/python2.7/site-packages/sqlalchemy/log'
p700
sg12
g13
(g14
g15
NtRp701
(dp702
g18
I1
sg19
I29
sg20
I83
sg21
I0
sg22
I2
sg23
I74
sg24
I27
sbssg25
S'\xeb7{\xba\xb2\xfe\xcb\x8d\xc8`\xf3J\xf7\xb5Q\xe7'
p703
ssS'_home_dundee_myFlaskApp_jahelp_flask_lib_python2_7_site-packages_sqlalchemy_engine_default'
p704
(dp705
g6
(dp706
g8
S'_home_dundee_myFlaskApp_jahelp_flask_lib_python2_7_site-packages_sqlalchemy_engine_default.html'
p707
sg10
S'/home/dundee/myFlaskApp/jahelp/flask/lib/python2.7/site-packages/sqlalchemy/engine/default'
p708
sg12
g13
(g14
g15
NtRp709
(dp710
g18
I1
sg19
I159
sg20
I425
sg21
I0
sg22
I32
sg23
I266
sg24
I106
sbssg25
S'\xcb\xb7J\x1c\x17\xe3\x15\xe1\xd4`=b\xf9\xad\xf3\xc3'
p711
ssS'_home_dundee_myFlaskApp_jahelp_flask_lib_python2_7_site-packages_sqlalchemy_orm_unitofwork'
p712
(dp713
g6
(dp714
g8
S'_home_dundee_myFlaskApp_jahelp_flask_lib_python2_7_site-packages_sqlalchemy_orm_unitofwork.html'
p715
sg10
S'/home/dundee/myFlaskApp/jahelp/flask/lib/python2.7/site-packages/sqlalchemy/orm/unitofwork'
p716
sg12
g13
(g14
g15
NtRp717
(dp718
g18
I1
sg19
I144
sg20
I297
sg21
I0
sg22
I17
sg23
I206
sg24
I90
sbssg25
S'8\xaf5\xac\xc7\x160i\x7f\xca\x1f\xf6\xaeq\x13\xaf'
p719
ssS'_home_dundee_myFlaskApp_jahelp_flask_lib_python2_7_site-packages_sqlalchemy_orm_strategies'
p720
(dp721
g6
(dp722
g8
S'_home_dundee_myFlaskApp_jahelp_flask_lib_python2_7_site-packages_sqlalchemy_orm_strategies.html'
p723
sg10
S'/home/dundee/myFlaskApp/jahelp/flask/lib/python2.7/site-packages/sqlalchemy/orm/strategies'
p724
sg12
g13
(g14
g15
NtRp725
(dp726
g18
I1
sg19
I324
sg20
I652
sg21
I0
sg22
I28
sg23
I564
sg24
I277
sbssg25
S'w\xd8s\xf5\x84\x0f\xfe\x05\xa6\xbf\xa3\xcf\x7f\x95x\xd3'
p727
ssS'_home_dundee_myFlaskApp_jahelp_flask_lib_python2_7_site-packages_wtforms_validators'
p728
(dp729
g6
(dp730
g8
S'_home_dundee_myFlaskApp_jahelp_flask_lib_python2_7_site-packages_wtforms_validators.html'
p731
sg10
S'/home/dundee/myFlaskApp/jahelp/flask/lib/python2.7/site-packages/wtforms/validators'
p732
sg12
g13
(g14
g15
NtRp733
(dp734
g18
I1
sg19
I96
sg20
I225
sg21
I0
sg22
I4
sg23
I209
sg24
I88
sbssg25
S'\xb9\xfc\xe3o\xc4}5\xe7?8\xd3\xe6jS\x17m'
p735
ssS'_home_dundee_myFlaskApp_jahelp_flask_lib_python2_7_site-packages_wtforms_fields_core'
p736
(dp737
g6
(dp738
g8
S'_home_dundee_myFlaskApp_jahelp_flask_lib_python2_7_site-packages_wtforms_fields_core.html'
p739
sg10
S'/home/dundee/myFlaskApp/jahelp/flask/lib/python2.7/site-packages/wtforms/fields/core'
p740
sg12
g13
(g14
g15
NtRp741
(dp742
g18
I1
sg19
I140
sg20
I484
sg21
I0
sg22
I12
sg23
I397
sg24
I112
sbssg25
S'\xe9\xa2\xb6\xb6\xcf\x00\x9b\x9c\x05Q\xb1\x9a\x0e\x92\xe0\xc9'
p743
ssS'_home_dundee_myFlaskApp_jahelp_flask_lib_python2_7_site-packages_werkzeug_formparser'
p744
(dp745
g6
(dp746
g8
S'_home_dundee_myFlaskApp_jahelp_flask_lib_python2_7_site-packages_werkzeug_formparser.html'
p747
sg10
S'/home/dundee/myFlaskApp/jahelp/flask/lib/python2.7/site-packages/werkzeug/formparser'
p748
sg12
g13
(g14
g15
NtRp749
(dp750
g18
I1
sg19
I107
sg20
I244
sg21
I4
sg22
I7
sg23
I220
sg24
I96
sbssg25
S'\xdd.\x04IK\x83\xce\xfe\x0f6\xa6]j\xf5\xec\x16'
p751
ssS'_home_dundee_myFlaskApp_jahelp_flask_lib_python2_7_site-packages_sqlalchemy_sql_util'
p752
(dp753
g6
(dp754
g8
S'_home_dundee_myFlaskApp_jahelp_flask_lib_python2_7_site-packages_sqlalchemy_sql_util.html'
p755
sg10
S'/home/dundee/myFlaskApp/jahelp/flask/lib/python2.7/site-packages/sqlalchemy/sql/util'
p756
sg12
g13
(g14
g15
NtRp757
(dp758
g18
I1
sg19
I225
sg20
I404
sg21
I0
sg22
I5
sg23
I379
sg24
I214
sbssg25
S't\x8b\x07=\x1e\xa3\xcd\xfb\x12\x08\x87\xfdo\xb6\x9c\xf3'
p759
ssS'_home_dundee_myFlaskApp_jahelp_flask_lib_python2_7_site-packages_sqlalchemy_interfaces'
p760
(dp761
g6
(dp762
g8
S'_home_dundee_myFlaskApp_jahelp_flask_lib_python2_7_site-packages_sqlalchemy_interfaces.html'
p763
sg10
S'/home/dundee/myFlaskApp/jahelp/flask/lib/python2.7/site-packages/sqlalchemy/interfaces'
p764
sg12
g13
(g14
g15
NtRp765
(dp766
g18
I1
sg19
I16
sg20
I69
sg21
I0
sg22
I0
sg23
I40
sg24
I16
sbssg25
S'\x18\xc7\x148\xfb[\x06\x06L\xad\xa3\x8a\xad\xbd1\x80'
p767
ssS'_home_dundee_myFlaskApp_jahelp_flask_lib_python2_7_site-packages_wtforms_widgets_core'
p768
(dp769
g6
(dp770
g8
S'_home_dundee_myFlaskApp_jahelp_flask_lib_python2_7_site-packages_wtforms_widgets_core.html'
p771
sg10
S'/home/dundee/myFlaskApp/jahelp/flask/lib/python2.7/site-packages/wtforms/widgets/core'
p772
sg12
g13
(g14
g15
NtRp773
(dp774
g18
I1
sg19
I36
sg20
I117
sg21
I0
sg22
I6
sg23
I88
sg24
I24
sbssg25
S'j]\xfc\xdf\xafQ\x8cAVEmQc3\xd8\x15'
p775
ssS'_home_dundee_myFlaskApp_jahelp_flask_lib_python2_7_site-packages_jinja2_environment'
p776
(dp777
g6
(dp778
g8
S'_home_dundee_myFlaskApp_jahelp_flask_lib_python2_7_site-packages_jinja2_environment.html'
p779
sg10
S'/home/dundee/myFlaskApp/jahelp/flask/lib/python2.7/site-packages/jinja2/environment'
p780
sg12
g13
(g14
g15
NtRp781
(dp782
g18
I1
sg19
I177
sg20
I488
sg21
I0
sg22
I12
sg23
I415
sg24
I153
sbssg25
S"f\x0e\xad([\xa6o\x86\xf2\x13\x82'\x11F\xde\xe2"
p783
ssS'_home_dundee_myFlaskApp_jahelp_flask_lib_python2_7_site-packages_sqlalchemy_pool'
p784
(dp785
g6
(dp786
g8
S'_home_dundee_myFlaskApp_jahelp_flask_lib_python2_7_site-packages_sqlalchemy_pool.html'
p787
sg10
S'/home/dundee/myFlaskApp/jahelp/flask/lib/python2.7/site-packages/sqlalchemy/pool'
p788
sg12
g13
(g14
g15
NtRp789
(dp790
g18
I1
sg19
I126
sg20
I459
sg21
I0
sg22
I23
sg23
I388
sg24
I99
sbssg25
S'\xca\x98L\xb7l\n\xf7\xff\xa1k-\x8f\x06\\u\x87'
p791
ssS'_home_dundee_myFlaskApp_jahelp_flask_lib_python2_7_site-packages_sqlalchemy_orm_deprecated_interfaces'
p792
(dp793
g6
(dp794
g8
S'_home_dundee_myFlaskApp_jahelp_flask_lib_python2_7_site-packages_sqlalchemy_orm_deprecated_interfaces.html'
p795
sg10
S'/home/dundee/myFlaskApp/jahelp/flask/lib/python2.7/site-packages/sqlalchemy/orm/deprecated_interfaces'
p796
sg12
g13
(g14
g15
NtRp797
(dp798
g18
I1
sg19
I34
sg20
I88
sg21
I0
sg22
I0
sg23
I83
sg24
I30
sbssg25
S"\xb3\xf5\xc8'l\xaf\xb5\x03\x14\xa5\xaa\xbe\x10\x15\xdf\x7f"
p799
ssS'_home_dundee_myFlaskApp_jahelp_flask_lib_python2_7_site-packages_jinja2_utils'
p800
(dp801
g6
(dp802
g8
S'_home_dundee_myFlaskApp_jahelp_flask_lib_python2_7_site-packages_jinja2_utils.html'
p803
sg10
S'/home/dundee/myFlaskApp/jahelp/flask/lib/python2.7/site-packages/jinja2/utils'
p804
sg12
g13
(g14
g15
NtRp805
(dp806
g18
I1
sg19
I82
sg20
I263
sg21
I0
sg22
I2
sg23
I241
sg24
I76
sbssg25
S'\x1d\n-\x99\xe7\x9f\xff\x88?\x9e\x92Q\x1f;\x8a\xcb'
p807
ssS'_home_dundee_myFlaskApp_jahelp_flask_lib_python2_7_site-packages_werkzeug__compat'
p808
(dp809
g6
(dp810
g8
S'_home_dundee_myFlaskApp_jahelp_flask_lib_python2_7_site-packages_werkzeug__compat.html'
p811
sg10
S'/home/dundee/myFlaskApp/jahelp/flask/lib/python2.7/site-packages/werkzeug/_compat'
p812
sg12
g13
(g14
g15
NtRp813
(dp814
g18
I1
sg19
I75
sg20
I146
sg21
I0
sg22
I8
sg23
I119
sg24
I52
sbssg25
S'\x82\\\xc2\xab\x8c\xe0M\xca\x00YFD\x0b\x91\xa7`'
p815
ssS'_home_dundee_myFlaskApp_jahelp_flask_lib_python2_7_site-packages_wtforms_ext_csrf_fields'
p816
(dp817
g6
(dp818
g8
S'_home_dundee_myFlaskApp_jahelp_flask_lib_python2_7_site-packages_wtforms_ext_csrf_fields.html'
p819
sg10
S'/home/dundee/myFlaskApp/jahelp/flask/lib/python2.7/site-packages/wtforms/ext/csrf/fields'
p820
sg12
g13
(g14
g15
NtRp821
(dp822
g18
I1
sg19
I0
sg20
I7
sg21
I0
sg22
I0
sg23
I6
sg24
I0
sbssg25
S'\xe0\xd4%\xc4S\x90x\x91\x86\x06$B\x03\x0e@+'
p823
ssS'_home_dundee_myFlaskApp_jahelp_flask_lib_python2_7_site-packages_werkzeug__internal'
p824
(dp825
g6
(dp826
g8
S'_home_dundee_myFlaskApp_jahelp_flask_lib_python2_7_site-packages_werkzeug__internal.html'
p827
sg10
S'/home/dundee/myFlaskApp/jahelp/flask/lib/python2.7/site-packages/werkzeug/_internal'
p828
sg12
g13
(g14
g15
NtRp829
(dp830
g18
I1
sg19
I84
sg20
I235
sg21
I0
sg22
I10
sg23
I174
sg24
I60
sbssg25
S'\x1a/^\xa6\xbf\xf1\x19\xd0\xaf:\x0b\xad\x99\xd7\xe3p'
p831
ssS'_home_dundee_myFlaskApp_jahelp_flask_lib_python2_7_site-packages_jinja2_runtime'
p832
(dp833
g6
(dp834
g8
S'_home_dundee_myFlaskApp_jahelp_flask_lib_python2_7_site-packages_jinja2_runtime.html'
p835
sg10
S'/home/dundee/myFlaskApp/jahelp/flask/lib/python2.7/site-packages/jinja2/runtime'
p836
sg12
g13
(g14
g15
NtRp837
(dp838
g18
I1
sg19
I106
sg20
I291
sg21
I0
sg22
I8
sg23
I232
sg24
I80
sbssg25
S'\x1a\xc4\xca\xce?"\xc2#\xef\xfd\xa7\x81\x10\x19e\xb2'
p839
ssS'_home_dundee_myFlaskApp_jahelp_flask_lib_python2_7_site-packages_blinker_base'
p840
(dp841
g6
(dp842
g8
S'_home_dundee_myFlaskApp_jahelp_flask_lib_python2_7_site-packages_blinker_base.html'
p843
sg10
S'/home/dundee/myFlaskApp/jahelp/flask/lib/python2.7/site-packages/blinker/base'
p844
sg12
g13
(g14
g15
NtRp845
(dp846
g18
I1
sg19
I50
sg20
I154
sg21
I0
sg22
I3
sg23
I149
sg24
I47
sbssg25
S'}\xafC\xd3R@\xb4\xdcL\x01\xc9\xf1k\x9f\xc10'
p847
sssS'version'
p848
S'3.7'
p849
sS'settings'
p850
S'\xb2\x9c\x8f\xa5Q\xda\x9c!\xf2_|\x7fF\xb85\xe3'
p851
sS'format'
p852
I1
s.